(lp1
(lp2
I5
aI1
aI1
aI1
aI2
aI1
aI3
aI1
aI1
aI2
aI-1
aa(lp3
I5
aI4
aI4
aI5
aI7
aI10
aI3
aI2
aI1
aI2
aI-1
aa(lp4
I3
aI1
aI1
aI1
aI2
aI2
aI3
aI1
aI1
aI2
aI-1
aa(lp5
I6
aI8
aI8
aI1
aI3
aI4
aI3
aI7
aI1
aI2
aI-1
aa(lp6
I4
aI1
aI1
aI3
aI2
aI1
aI3
aI1
aI1
aI2
aI-1
aa(lp7
I8
aI10
aI10
aI8
aI7
aI10
aI9
aI7
aI1
aI4
aI1
aa(lp8
I1
aI1
aI1
aI1
aI2
aI10
aI3
aI1
aI1
aI2
aI-1
aa(lp9
I2
aI1
aI2
aI1
aI2
aI1
aI3
aI1
aI1
aI2
aI-1
aa(lp10
I2
aI1
aI1
aI1
aI2
aI1
aI1
aI1
aI5
aI2
aI-1
aa(lp11
I4
aI2
aI1
aI1
aI2
aI1
aI2
aI1
aI1
aI2
aI-1
aa(lp12
I1
aI1
aI1
aI1
aI1
aI1
aI3
aI1
aI1
aI2
aI-1
aa(lp13
I2
aI1
aI1
aI1
aI2
aI1
aI2
aI1
aI1
aI2
aI-1
aa(lp14
I5
aI3
aI3
aI3
aI2
aI3
aI4
aI4
aI1
aI4
aI1
aa(lp15
I1
aI1
aI1
aI1
aI2
aI3
aI3
aI1
aI1
aI2
aI-1
aa(lp16
I8
aI7
aI5
aI10
aI7
aI9
aI5
aI5
aI4
aI4
aI1
aa(lp17
I7
aI4
aI6
aI4
aI6
aI1
aI4
aI3
aI1
aI4
aI1
aa(lp18
I4
aI1
aI1
aI1
aI2
aI1
aI2
aI1
aI1
aI2
aI-1
aa(lp19
I4
aI1
aI1
aI1
aI2
aI1
aI3
aI1
aI1
aI2
aI-1
aa(lp20
I10
aI7
aI7
aI6
aI4
aI10
aI4
aI1
aI2
aI4
aI1
aa(lp21
I6
aI1
aI1
aI1
aI2
aI1
aI3
aI1
aI1
aI2
aI-1
aa(lp22
I7
aI3
aI2
aI10
aI5
aI10
aI5
aI4
aI4
aI4
aI1
aa(lp23
I10
aI5
aI5
aI3
aI6
aI7
aI7
aI10
aI1
aI4
aI1
aa(lp24
I3
aI1
aI1
aI1
aI2
aI1
aI2
aI1
aI1
aI2
aI-1
aa(lp25
I1
aI1
aI1
aI1
aI2
aI1
aI3
aI1
aI1
aI2
aI-1
aa(lp26
I5
aI2
aI3
aI4
aI2
aI7
aI3
aI6
aI1
aI4
aI1
aa(lp27
I3
aI2
aI1
aI1
aI1
aI1
aI2
aI1
aI1
aI2
aI-1
aa(lp28
I5
aI1
aI1
aI1
aI2
aI1
aI2
aI1
aI1
aI2
aI-1
aa(lp29
I2
aI1
aI1
aI1
aI2
aI1
aI2
aI1
aI1
aI2
aI-1
aa(lp30
I1
aI1
aI3
aI1
aI2
aI1
aI1
aI1
aI1
aI2
aI-1
aa(lp31
I3
aI1
aI1
aI1
aI1
aI1
aI2
aI1
aI1
aI2
aI-1
aa(lp32
I2
aI1
aI1
aI1
aI2
aI1
aI3
aI1
aI1
aI2
aI-1
aa(lp33
I10
aI7
aI7
aI3
aI8
aI5
aI7
aI4
aI3
aI4
aI1
aa(lp34
I2
aI1
aI1
aI2
aI2
aI1
aI3
aI1
aI1
aI2
aI-1
aa(lp35
I3
aI1
aI2
aI1
aI2
aI1
aI2
aI1
aI1
aI2
aI-1
aa(lp36
I2
aI1
aI1
aI1
aI2
aI1
aI2
aI1
aI1
aI2
aI-1
aa(lp37
I10
aI10
aI10
aI8
aI6
aI1
aI8
aI9
aI1
aI4
aI1
aa(lp38
I6
aI2
aI1
aI1
aI1
aI1
aI7
aI1
aI1
aI2
aI-1
aa(lp39
I5
aI4
aI4
aI9
aI2
aI10
aI5
aI6
aI1
aI4
aI1
aa(lp40
I2
aI5
aI3
aI3
aI6
aI7
aI7
aI5
aI1
aI4
aI1
aa(lp41
I10
aI4
aI3
aI1
aI3
aI3
aI6
aI5
aI2
aI4
aI1
aa(lp42
I6
aI10
aI10
aI2
aI8
aI10
aI7
aI3
aI3
aI4
aI1
aa(lp43
I5
aI6
aI5
aI6
aI10
aI1
aI3
aI1
aI1
aI4
aI1
aa(lp44
I10
aI10
aI10
aI4
aI8
aI1
aI8
aI10
aI1
aI4
aI1
aa(lp45
I1
aI1
aI1
aI1
aI2
aI1
aI2
aI1
aI2
aI2
aI-1
aa(lp46
I3
aI7
aI7
aI4
aI4
aI9
aI4
aI8
aI1
aI4
aI1
aa(lp47
I1
aI1
aI1
aI1
aI2
aI1
aI2
aI1
aI1
aI2
aI-1
aa(lp48
I4
aI1
aI1
aI3
aI2
aI1
aI3
aI1
aI1
aI2
aI-1
aa(lp49
I7
aI8
aI7
aI2
aI4
aI8
aI3
aI8
aI2
aI4
aI1
aa(lp50
I9
aI5
aI8
aI1
aI2
aI3
aI2
aI1
aI5
aI4
aI1
aa(lp51
I5
aI3
aI3
aI4
aI2
aI4
aI3
aI4
aI1
aI4
aI1
aa(lp52
I10
aI3
aI6
aI2
aI3
aI5
aI4
aI10
aI2
aI4
aI1
aa(lp53
I5
aI5
aI5
aI8
aI10
aI8
aI7
aI3
aI7
aI4
aI1
aa(lp54
I10
aI5
aI5
aI6
aI8
aI8
aI7
aI1
aI1
aI4
aI1
aa(lp55
I10
aI6
aI6
aI3
aI4
aI5
aI3
aI6
aI1
aI4
aI1
aa(lp56
I8
aI10
aI10
aI1
aI3
aI6
aI3
aI9
aI1
aI4
aI1
aa(lp57
I8
aI2
aI4
aI1
aI5
aI1
aI5
aI4
aI4
aI4
aI1
aa(lp58
I5
aI2
aI3
aI1
aI6
aI10
aI5
aI1
aI1
aI4
aI1
aa(lp59
I9
aI5
aI5
aI2
aI2
aI2
aI5
aI1
aI1
aI4
aI1
aa(lp60
I5
aI3
aI5
aI5
aI3
aI3
aI4
aI10
aI1
aI4
aI1
aa(lp61
I1
aI1
aI1
aI1
aI2
aI2
aI2
aI1
aI1
aI2
aI-1
aa(lp62
I9
aI10
aI10
aI1
aI10
aI8
aI3
aI3
aI1
aI4
aI1
aa(lp63
I6
aI3
aI4
aI1
aI5
aI2
aI3
aI9
aI1
aI4
aI1
aa(lp64
I1
aI1
aI1
aI1
aI2
aI1
aI2
aI1
aI1
aI2
aI-1
aa(lp65
I10
aI4
aI2
aI1
aI3
aI2
aI4
aI3
aI10
aI4
aI1
aa(lp66
I4
aI1
aI1
aI1
aI2
aI1
aI3
aI1
aI1
aI2
aI-1
aa(lp67
I5
aI3
aI4
aI1
aI8
aI10
aI4
aI9
aI1
aI4
aI1
aa(lp68
I8
aI3
aI8
aI3
aI4
aI9
aI8
aI9
aI8
aI4
aI1
aa(lp69
I1
aI1
aI1
aI1
aI2
aI1
aI3
aI2
aI1
aI2
aI-1
aa(lp70
I5
aI1
aI3
aI1
aI2
aI1
aI2
aI1
aI1
aI2
aI-1
aa(lp71
I6
aI10
aI2
aI8
aI10
aI2
aI7
aI8
aI10
aI4
aI1
aa(lp72
I1
aI3
aI3
aI2
aI2
aI1
aI7
aI2
aI1
aI2
aI-1
aa(lp73
I9
aI4
aI5
aI10
aI6
aI10
aI4
aI8
aI1
aI4
aI1
aa(lp74
I10
aI6
aI4
aI1
aI3
aI4
aI3
aI2
aI3
aI4
aI1
aa(lp75
I1
aI1
aI2
aI1
aI2
aI2
aI4
aI2
aI1
aI2
aI-1
aa(lp76
I1
aI1
aI4
aI1
aI2
aI1
aI2
aI1
aI1
aI2
aI-1
aa(lp77
I5
aI3
aI1
aI2
aI2
aI1
aI2
aI1
aI1
aI2
aI-1
aa(lp78
I3
aI1
aI1
aI1
aI2
aI3
aI3
aI1
aI1
aI2
aI-1
aa(lp79
I2
aI1
aI1
aI1
aI3
aI1
aI2
aI1
aI1
aI2
aI-1
aa(lp80
I2
aI2
aI2
aI1
aI1
aI1
aI7
aI1
aI1
aI2
aI-1
aa(lp81
I4
aI1
aI1
aI2
aI2
aI1
aI2
aI1
aI1
aI2
aI-1
aa(lp82
I5
aI2
aI1
aI1
aI2
aI1
aI3
aI1
aI1
aI2
aI-1
aa(lp83
I3
aI1
aI1
aI1
aI2
aI2
aI7
aI1
aI1
aI2
aI-1
aa(lp84
I3
aI5
aI7
aI8
aI8
aI9
aI7
aI10
aI7
aI4
aI1
aa(lp85
I5
aI10
aI6
aI1
aI10
aI4
aI4
aI10
aI10
aI4
aI1
aa(lp86
I3
aI3
aI6
aI4
aI5
aI8
aI4
aI4
aI1
aI4
aI1
aa(lp87
I3
aI6
aI6
aI6
aI5
aI10
aI6
aI8
aI3
aI4
aI1
aa(lp88
I4
aI1
aI1
aI1
aI2
aI1
aI3
aI1
aI1
aI2
aI-1
aa(lp89
I2
aI1
aI1
aI2
aI3
aI1
aI2
aI1
aI1
aI2
aI-1
aa(lp90
I1
aI1
aI1
aI1
aI2
aI1
aI3
aI1
aI1
aI2
aI-1
aa(lp91
I3
aI1
aI1
aI2
aI2
aI1
aI1
aI1
aI1
aI2
aI-1
aa(lp92
I4
aI1
aI1
aI1
aI2
aI1
aI3
aI1
aI1
aI2
aI-1
aa(lp93
I1
aI1
aI1
aI1
aI2
aI1
aI2
aI1
aI1
aI2
aI-1
aa(lp94
I2
aI1
aI1
aI1
aI2
aI1
aI3
aI1
aI1
aI2
aI-1
aa(lp95
I1
aI1
aI1
aI1
aI2
aI1
aI3
aI1
aI1
aI2
aI-1
aa(lp96
I2
aI1
aI1
aI2
aI2
aI1
aI1
aI1
aI1
aI2
aI-1
aa(lp97
I5
aI1
aI1
aI1
aI2
aI1
aI3
aI1
aI1
aI2
aI-1
aa(lp98
I9
aI6
aI9
aI2
aI10
aI6
aI2
aI9
aI10
aI4
aI1
aa(lp99
I7
aI5
aI6
aI10
aI5
aI10
aI7
aI9
aI4
aI4
aI1
aa(lp100
I10
aI3
aI5
aI1
aI10
aI5
aI3
aI10
aI2
aI4
aI1
aa(lp101
I2
aI3
aI4
aI4
aI2
aI5
aI2
aI5
aI1
aI4
aI1
aa(lp102
I4
aI1
aI2
aI1
aI2
aI1
aI3
aI1
aI1
aI2
aI-1
aa(lp103
I8
aI2
aI3
aI1
aI6
aI3
aI7
aI1
aI1
aI4
aI1
aa(lp104
I10
aI10
aI10
aI10
aI10
aI1
aI8
aI8
aI8
aI4
aI1
aa(lp105
I7
aI3
aI4
aI4
aI3
aI3
aI3
aI2
aI7
aI4
aI1
aa(lp106
I10
aI10
aI10
aI8
aI2
aI10
aI4
aI1
aI1
aI4
aI1
aa(lp107
I1
aI6
aI8
aI10
aI8
aI10
aI5
aI7
aI1
aI4
aI1
aa(lp108
I1
aI1
aI1
aI1
aI2
aI1
aI2
aI3
aI1
aI2
aI-1
aa(lp109
I6
aI5
aI4
aI4
aI3
aI9
aI7
aI8
aI3
aI4
aI1
aa(lp110
I1
aI3
aI1
aI2
aI2
aI2
aI5
aI3
aI2
aI2
aI-1
aa(lp111
I8
aI6
aI4
aI3
aI5
aI9
aI3
aI1
aI1
aI4
aI1
aa(lp112
I10
aI3
aI3
aI10
aI2
aI10
aI7
aI3
aI3
aI4
aI1
aa(lp113
I10
aI10
aI10
aI3
aI10
aI8
aI8
aI1
aI1
aI4
aI1
aa(lp114
I3
aI3
aI2
aI1
aI2
aI3
aI3
aI1
aI1
aI2
aI-1
aa(lp115
I1
aI1
aI1
aI1
aI2
aI5
aI1
aI1
aI1
aI2
aI-1
aa(lp116
I8
aI3
aI3
aI1
aI2
aI2
aI3
aI2
aI1
aI2
aI-1
aa(lp117
I4
aI5
aI5
aI10
aI4
aI10
aI7
aI5
aI8
aI4
aI1
aa(lp118
I1
aI1
aI1
aI1
aI4
aI3
aI1
aI1
aI1
aI2
aI-1
aa(lp119
I3
aI2
aI1
aI1
aI2
aI2
aI3
aI1
aI1
aI2
aI-1
aa(lp120
I1
aI1
aI2
aI2
aI2
aI1
aI3
aI1
aI1
aI2
aI-1
aa(lp121
I4
aI2
aI1
aI1
aI2
aI2
aI3
aI1
aI1
aI2
aI-1
aa(lp122
I10
aI10
aI10
aI2
aI10
aI10
aI5
aI3
aI3
aI4
aI1
aa(lp123
I5
aI3
aI5
aI1
aI8
aI10
aI5
aI3
aI1
aI4
aI1
aa(lp124
I5
aI4
aI6
aI7
aI9
aI7
aI8
aI10
aI1
aI4
aI1
aa(lp125
I1
aI1
aI1
aI1
aI2
aI1
aI2
aI1
aI1
aI2
aI-1
aa(lp126
I7
aI5
aI3
aI7
aI4
aI10
aI7
aI5
aI5
aI4
aI1
aa(lp127
I3
aI1
aI1
aI1
aI2
aI1
aI3
aI1
aI1
aI2
aI-1
aa(lp128
I8
aI3
aI5
aI4
aI5
aI10
aI1
aI6
aI2
aI4
aI1
aa(lp129
I1
aI1
aI1
aI1
aI10
aI1
aI1
aI1
aI1
aI2
aI-1
aa(lp130
I5
aI1
aI3
aI1
aI2
aI1
aI2
aI1
aI1
aI2
aI-1
aa(lp131
I2
aI1
aI1
aI1
aI2
aI1
aI3
aI1
aI1
aI2
aI-1
aa(lp132
I5
aI10
aI8
aI10
aI8
aI10
aI3
aI6
aI3
aI4
aI1
aa(lp133
I3
aI1
aI1
aI1
aI2
aI1
aI2
aI2
aI1
aI2
aI-1
aa(lp134
I3
aI1
aI1
aI1
aI3
aI1
aI2
aI1
aI1
aI2
aI-1
aa(lp135
I5
aI1
aI1
aI1
aI2
aI2
aI3
aI3
aI1
aI2
aI-1
aa(lp136
I4
aI1
aI1
aI1
aI2
aI1
aI2
aI1
aI1
aI2
aI-1
aa(lp137
I3
aI1
aI1
aI1
aI2
aI1
aI1
aI1
aI1
aI2
aI-1
aa(lp138
I4
aI1
aI2
aI1
aI2
aI1
aI2
aI1
aI1
aI2
aI-1
aa(lp139
I3
aI1
aI1
aI1
aI2
aI1
aI1
aI1
aI1
aI2
aI-1
aa(lp140
I2
aI1
aI1
aI1
aI2
aI1
aI1
aI1
aI1
aI2
aI-1
aa(lp141
I9
aI5
aI5
aI4
aI4
aI5
aI4
aI3
aI3
aI4
aI1
aa(lp142
I1
aI1
aI1
aI1
aI2
aI5
aI1
aI1
aI1
aI2
aI-1
aa(lp143
I2
aI1
aI1
aI1
aI2
aI1
aI2
aI1
aI1
aI2
aI-1
aa(lp144
I3
aI4
aI5
aI2
aI6
aI8
aI4
aI1
aI1
aI4
aI1
aa(lp145
I1
aI1
aI1
aI1
aI3
aI2
aI2
aI1
aI1
aI2
aI-1
aa(lp146
I3
aI1
aI1
aI3
aI8
aI1
aI5
aI8
aI1
aI2
aI-1
aa(lp147
I8
aI8
aI7
aI4
aI10
aI10
aI7
aI8
aI7
aI4
aI1
aa(lp148
I1
aI1
aI1
aI1
aI1
aI1
aI3
aI1
aI1
aI2
aI-1
aa(lp149
I7
aI2
aI4
aI1
aI6
aI10
aI5
aI4
aI3
aI4
aI1
aa(lp150
I10
aI10
aI8
aI6
aI4
aI5
aI8
aI10
aI1
aI4
aI1
aa(lp151
I4
aI1
aI1
aI1
aI2
aI3
aI1
aI1
aI1
aI2
aI-1
aa(lp152
I1
aI1
aI1
aI1
aI2
aI1
aI1
aI1
aI1
aI2
aI-1
aa(lp153
I5
aI5
aI5
aI6
aI3
aI10
aI3
aI1
aI1
aI4
aI1
aa(lp154
I1
aI2
aI2
aI1
aI2
aI1
aI2
aI1
aI1
aI2
aI-1
aa(lp155
I2
aI1
aI1
aI1
aI2
aI1
aI3
aI1
aI1
aI2
aI-1
aa(lp156
I9
aI9
aI10
aI3
aI6
aI10
aI7
aI10
aI6
aI4
aI1
aa(lp157
I10
aI7
aI7
aI4
aI5
aI10
aI5
aI7
aI2
aI4
aI1
aa(lp158
I4
aI1
aI1
aI1
aI2
aI1
aI3
aI2
aI1
aI2
aI-1
aa(lp159
I3
aI1
aI1
aI1
aI2
aI1
aI3
aI1
aI1
aI2
aI-1
aa(lp160
I1
aI1
aI1
aI2
aI1
aI3
aI1
aI1
aI7
aI2
aI-1
aa(lp161
I4
aI1
aI1
aI1
aI2
aI2
aI3
aI2
aI1
aI2
aI-1
aa(lp162
I5
aI6
aI7
aI8
aI8
aI10
aI3
aI10
aI3
aI4
aI1
aa(lp163
I10
aI8
aI10
aI10
aI6
aI1
aI3
aI1
aI10
aI4
aI1
aa(lp164
I3
aI1
aI1
aI1
aI2
aI1
aI3
aI1
aI1
aI2
aI-1
aa(lp165
I1
aI1
aI1
aI2
aI1
aI1
aI1
aI1
aI1
aI2
aI-1
aa(lp166
I3
aI1
aI1
aI1
aI2
aI1
aI1
aI1
aI1
aI2
aI-1
aa(lp167
I1
aI1
aI1
aI1
aI2
aI1
aI3
aI1
aI1
aI2
aI-1
aa(lp168
I1
aI1
aI1
aI1
aI2
aI1
aI2
aI1
aI1
aI2
aI-1
aa(lp169
I6
aI10
aI10
aI10
aI8
aI10
aI10
aI10
aI7
aI4
aI1
aa(lp170
I8
aI6
aI5
aI4
aI3
aI10
aI6
aI1
aI1
aI4
aI1
aa(lp171
I5
aI8
aI7
aI7
aI10
aI10
aI5
aI7
aI1
aI4
aI1
aa(lp172
I2
aI1
aI1
aI1
aI2
aI1
aI3
aI1
aI1
aI2
aI-1
aa(lp173
I5
aI10
aI10
aI3
aI8
aI1
aI5
aI10
aI3
aI4
aI1
aa(lp174
I4
aI1
aI1
aI1
aI2
aI1
aI3
aI1
aI1
aI2
aI-1
aa(lp175
I5
aI3
aI3
aI3
aI6
aI10
aI3
aI1
aI1
aI4
aI1
aa(lp176
I1
aI1
aI1
aI1
aI1
aI1
aI3
aI1
aI1
aI2
aI-1
aa(lp177
I1
aI1
aI1
aI1
aI2
aI1
aI1
aI1
aI1
aI2
aI-1
aa(lp178
I6
aI1
aI1
aI1
aI2
aI1
aI3
aI1
aI1
aI2
aI-1
aa(lp179
I5
aI8
aI8
aI8
aI5
aI10
aI7
aI8
aI1
aI4
aI1
aa(lp180
I8
aI7
aI6
aI4
aI4
aI10
aI5
aI1
aI1
aI4
aI1
aa(lp181
I2
aI1
aI1
aI1
aI1
aI1
aI3
aI1
aI1
aI2
aI-1
aa(lp182
I1
aI5
aI8
aI6
aI5
aI8
aI7
aI10
aI1
aI4
aI1
aa(lp183
I10
aI5
aI6
aI10
aI6
aI10
aI7
aI7
aI10
aI4
aI1
aa(lp184
I5
aI8
aI4
aI10
aI5
aI8
aI9
aI10
aI1
aI4
aI1
aa(lp185
I1
aI2
aI3
aI1
aI2
aI1
aI3
aI1
aI1
aI2
aI-1
aa(lp186
I10
aI10
aI10
aI8
aI6
aI8
aI7
aI10
aI1
aI4
aI1
aa(lp187
I7
aI5
aI10
aI10
aI10
aI10
aI4
aI10
aI3
aI4
aI1
aa(lp188
I5
aI1
aI1
aI1
aI2
aI1
aI2
aI1
aI1
aI2
aI-1
aa(lp189
I1
aI1
aI1
aI1
aI2
aI1
aI3
aI1
aI1
aI2
aI-1
aa(lp190
I3
aI1
aI1
aI1
aI2
aI1
aI3
aI1
aI1
aI2
aI-1
aa(lp191
I4
aI1
aI1
aI1
aI2
aI1
aI3
aI1
aI1
aI2
aI-1
aa(lp192
I8
aI4
aI4
aI5
aI4
aI7
aI7
aI8
aI2
aI2
aI-1
aa(lp193
I5
aI1
aI1
aI4
aI2
aI1
aI3
aI1
aI1
aI2
aI-1
aa(lp194
I1
aI1
aI1
aI1
aI2
aI1
aI1
aI1
aI1
aI2
aI-1
aa(lp195
I3
aI1
aI1
aI1
aI2
aI1
aI2
aI1
aI1
aI2
aI-1
aa(lp196
I9
aI7
aI7
aI5
aI5
aI10
aI7
aI8
aI3
aI4
aI1
aa(lp197
I10
aI8
aI8
aI4
aI10
aI10
aI8
aI1
aI1
aI4
aI1
aa(lp198
I1
aI1
aI1
aI1
aI2
aI1
aI3
aI1
aI1
aI2
aI-1
aa(lp199
I5
aI1
aI1
aI1
aI2
aI1
aI3
aI1
aI1
aI2
aI-1
aa(lp200
I1
aI1
aI1
aI1
aI2
aI1
aI3
aI1
aI1
aI2
aI-1
aa(lp201
I5
aI10
aI10
aI9
aI6
aI10
aI7
aI10
aI5
aI4
aI1
aa(lp202
I10
aI10
aI9
aI3
aI7
aI5
aI3
aI5
aI1
aI4
aI1
aa(lp203
I1
aI1
aI1
aI1
aI1
aI1
aI3
aI1
aI1
aI2
aI-1
aa(lp204
I1
aI1
aI1
aI1
aI1
aI1
aI3
aI1
aI1
aI2
aI-1
aa(lp205
I5
aI1
aI1
aI1
aI1
aI1
aI3
aI1
aI1
aI2
aI-1
aa(lp206
I8
aI10
aI10
aI10
aI5
aI10
aI8
aI10
aI6
aI4
aI1
aa(lp207
I8
aI10
aI8
aI8
aI4
aI8
aI7
aI7
aI1
aI4
aI1
aa(lp208
I1
aI1
aI1
aI1
aI2
aI1
aI3
aI1
aI1
aI2
aI-1
aa(lp209
I10
aI10
aI10
aI10
aI7
aI10
aI7
aI10
aI4
aI4
aI1
aa(lp210
I10
aI10
aI10
aI10
aI3
aI10
aI10
aI6
aI1
aI4
aI1
aa(lp211
I8
aI7
aI8
aI7
aI5
aI5
aI5
aI10
aI2
aI4
aI1
aa(lp212
I1
aI1
aI1
aI1
aI2
aI1
aI2
aI1
aI1
aI2
aI-1
aa(lp213
I1
aI1
aI1
aI1
aI2
aI1
aI3
aI1
aI1
aI2
aI-1
aa(lp214
I6
aI10
aI7
aI7
aI6
aI4
aI8
aI10
aI2
aI4
aI1
aa(lp215
I6
aI1
aI3
aI1
aI2
aI1
aI3
aI1
aI1
aI2
aI-1
aa(lp216
I1
aI1
aI1
aI2
aI2
aI1
aI3
aI1
aI1
aI2
aI-1
aa(lp217
I10
aI6
aI4
aI3
aI10
aI10
aI9
aI10
aI1
aI4
aI1
aa(lp218
I4
aI1
aI1
aI3
aI1
aI5
aI2
aI1
aI1
aI4
aI1
aa(lp219
I7
aI5
aI6
aI3
aI3
aI8
aI7
aI4
aI1
aI4
aI1
aa(lp220
I10
aI5
aI5
aI6
aI3
aI10
aI7
aI9
aI2
aI4
aI1
aa(lp221
I1
aI1
aI1
aI1
aI2
aI1
aI2
aI1
aI1
aI2
aI-1
aa(lp222
I10
aI5
aI7
aI4
aI4
aI10
aI8
aI9
aI1
aI4
aI1
aa(lp223
I8
aI9
aI9
aI5
aI3
aI5
aI7
aI7
aI1
aI4
aI1
aa(lp224
I1
aI1
aI1
aI1
aI1
aI1
aI3
aI1
aI1
aI2
aI-1
aa(lp225
I10
aI10
aI10
aI3
aI10
aI10
aI9
aI10
aI1
aI4
aI1
aa(lp226
I7
aI4
aI7
aI4
aI3
aI7
aI7
aI6
aI1
aI4
aI1
aa(lp227
I6
aI8
aI7
aI5
aI6
aI8
aI8
aI9
aI2
aI4
aI1
aa(lp228
I8
aI4
aI6
aI3
aI3
aI1
aI4
aI3
aI1
aI2
aI-1
aa(lp229
I10
aI4
aI5
aI5
aI5
aI10
aI4
aI1
aI1
aI4
aI1
aa(lp230
I3
aI3
aI2
aI1
aI3
aI1
aI3
aI6
aI1
aI2
aI-1
aa(lp231
I10
aI8
aI8
aI2
aI8
aI10
aI4
aI8
aI10
aI4
aI1
aa(lp232
I9
aI8
aI8
aI5
aI6
aI2
aI4
aI10
aI4
aI4
aI1
aa(lp233
I8
aI10
aI10
aI8
aI6
aI9
aI3
aI10
aI10
aI4
aI1
aa(lp234
I10
aI4
aI3
aI2
aI3
aI10
aI5
aI3
aI2
aI4
aI1
aa(lp235
I5
aI1
aI3
aI3
aI2
aI2
aI2
aI3
aI1
aI2
aI-1
aa(lp236
I3
aI1
aI1
aI3
aI1
aI1
aI3
aI1
aI1
aI2
aI-1
aa(lp237
I2
aI1
aI1
aI1
aI2
aI1
aI3
aI1
aI1
aI2
aI-1
aa(lp238
I1
aI1
aI1
aI1
aI2
aI5
aI5
aI1
aI1
aI2
aI-1
aa(lp239
I1
aI1
aI1
aI1
aI2
aI1
aI3
aI1
aI1
aI2
aI-1
aa(lp240
I5
aI1
aI1
aI2
aI2
aI2
aI3
aI1
aI1
aI2
aI-1
aa(lp241
I8
aI10
aI10
aI8
aI5
aI10
aI7
aI8
aI1
aI4
aI1
aa(lp242
I8
aI4
aI4
aI1
aI2
aI9
aI3
aI3
aI1
aI4
aI1
aa(lp243
I4
aI1
aI1
aI1
aI2
aI1
aI3
aI6
aI1
aI2
aI-1
aa(lp244
I1
aI2
aI2
aI1
aI2
aI1
aI1
aI1
aI1
aI2
aI-1
aa(lp245
I10
aI4
aI4
aI10
aI2
aI10
aI5
aI3
aI3
aI4
aI1
aa(lp246
I6
aI3
aI3
aI5
aI3
aI10
aI3
aI5
aI3
aI2
aI-1
aa(lp247
I6
aI10
aI10
aI2
aI8
aI10
aI7
aI3
aI3
aI4
aI1
aa(lp248
I9
aI10
aI10
aI1
aI10
aI8
aI3
aI3
aI1
aI4
aI1
aa(lp249
I5
aI6
aI6
aI2
aI4
aI10
aI3
aI6
aI1
aI4
aI1
aa(lp250
I3
aI1
aI1
aI1
aI2
aI1
aI1
aI1
aI1
aI2
aI-1
aa(lp251
I3
aI1
aI1
aI1
aI2
aI1
aI2
aI1
aI1
aI2
aI-1
aa(lp252
I3
aI1
aI1
aI1
aI2
aI1
aI3
aI1
aI1
aI2
aI-1
aa(lp253
I5
aI7
aI7
aI1
aI5
aI8
aI3
aI4
aI1
aI2
aI-1
aa(lp254
I10
aI5
aI8
aI10
aI3
aI10
aI5
aI1
aI3
aI4
aI1
aa(lp255
I5
aI10
aI10
aI6
aI10
aI10
aI10
aI6
aI5
aI4
aI1
aa(lp256
I8
aI8
aI9
aI4
aI5
aI10
aI7
aI8
aI1
aI4
aI1
aa(lp257
I10
aI4
aI4
aI10
aI6
aI10
aI5
aI5
aI1
aI4
aI1
aa(lp258
I7
aI9
aI4
aI10
aI10
aI3
aI5
aI3
aI3
aI4
aI1
aa(lp259
I5
aI1
aI4
aI1
aI2
aI1
aI3
aI2
aI1
aI2
aI-1
aa(lp260
I10
aI10
aI6
aI3
aI3
aI10
aI4
aI3
aI2
aI4
aI1
aa(lp261
I3
aI3
aI5
aI2
aI3
aI10
aI7
aI1
aI1
aI4
aI1
aa(lp262
I10
aI8
aI8
aI2
aI3
aI4
aI8
aI7
aI8
aI4
aI1
aa(lp263
I1
aI1
aI1
aI1
aI2
aI1
aI3
aI1
aI1
aI2
aI-1
aa(lp264
I8
aI4
aI7
aI1
aI3
aI10
aI3
aI9
aI2
aI4
aI1
aa(lp265
I5
aI1
aI1
aI1
aI2
aI1
aI3
aI1
aI1
aI2
aI-1
aa(lp266
I3
aI3
aI5
aI2
aI3
aI10
aI7
aI1
aI1
aI4
aI1
aa(lp267
I7
aI2
aI4
aI1
aI3
aI4
aI3
aI3
aI1
aI4
aI1
aa(lp268
I3
aI1
aI1
aI1
aI2
aI1
aI3
aI2
aI1
aI2
aI-1
aa(lp269
I3
aI1
aI1
aI1
aI2
aI1
aI2
aI1
aI1
aI2
aI-1
aa(lp270
I1
aI1
aI1
aI1
aI2
aI1
aI2
aI1
aI1
aI2
aI-1
aa(lp271
I1
aI1
aI1
aI1
aI2
aI1
aI3
aI1
aI1
aI2
aI-1
aa(lp272
I10
aI5
aI7
aI3
aI3
aI7
aI3
aI3
aI8
aI4
aI1
aa(lp273
I3
aI1
aI1
aI1
aI2
aI1
aI3
aI1
aI1
aI2
aI-1
aa(lp274
I2
aI1
aI1
aI2
aI2
aI1
aI3
aI1
aI1
aI2
aI-1
aa(lp275
I1
aI4
aI3
aI10
aI4
aI10
aI5
aI6
aI1
aI4
aI1
aa(lp276
I10
aI4
aI6
aI1
aI2
aI10
aI5
aI3
aI1
aI4
aI1
aa(lp277
I7
aI4
aI5
aI10
aI2
aI10
aI3
aI8
aI2
aI4
aI1
aa(lp278
I8
aI10
aI10
aI10
aI8
aI10
aI10
aI7
aI3
aI4
aI1
aa(lp279
I10
aI10
aI10
aI10
aI10
aI10
aI4
aI10
aI10
aI4
aI1
aa(lp280
I3
aI1
aI1
aI1
aI3
aI1
aI2
aI1
aI1
aI2
aI-1
aa(lp281
I6
aI1
aI3
aI1
aI4
aI5
aI5
aI10
aI1
aI4
aI1
aa(lp282
I5
aI6
aI6
aI8
aI6
aI10
aI4
aI10
aI4
aI4
aI1
aa(lp283
I1
aI1
aI1
aI1
aI2
aI1
aI1
aI1
aI1
aI2
aI-1
aa(lp284
I1
aI1
aI1
aI1
aI2
aI1
aI3
aI1
aI1
aI2
aI-1
aa(lp285
I10
aI4
aI4
aI6
aI2
aI10
aI2
aI3
aI1
aI4
aI1
aa(lp286
I5
aI5
aI7
aI8
aI6
aI10
aI7
aI4
aI1
aI4
aI1
aa(lp287
I5
aI3
aI4
aI3
aI4
aI5
aI4
aI7
aI1
aI2
aI-1
aa(lp288
I8
aI2
aI1
aI1
aI5
aI1
aI1
aI1
aI1
aI2
aI-1
aa(lp289
I9
aI1
aI2
aI6
aI4
aI10
aI7
aI7
aI2
aI4
aI1
aa(lp290
I8
aI4
aI10
aI5
aI4
aI4
aI7
aI10
aI1
aI4
aI1
aa(lp291
I1
aI1
aI1
aI1
aI2
aI1
aI3
aI1
aI1
aI2
aI-1
aa(lp292
I10
aI10
aI10
aI7
aI9
aI10
aI7
aI10
aI10
aI4
aI1
aa(lp293
I1
aI1
aI1
aI1
aI2
aI1
aI3
aI1
aI1
aI2
aI-1
aa(lp294
I8
aI3
aI4
aI9
aI3
aI10
aI3
aI3
aI1
aI4
aI1
aa(lp295
I10
aI8
aI4
aI4
aI4
aI10
aI3
aI10
aI4
aI4
aI1
aa(lp296
I1
aI1
aI1
aI1
aI2
aI1
aI3
aI1
aI1
aI2
aI-1
aa(lp297
I1
aI1
aI1
aI1
aI2
aI1
aI3
aI1
aI1
aI2
aI-1
aa(lp298
I7
aI8
aI7
aI6
aI4
aI3
aI8
aI8
aI4
aI4
aI1
aa(lp299
I3
aI1
aI1
aI1
aI2
aI5
aI5
aI1
aI1
aI2
aI-1
aa(lp300
I2
aI1
aI1
aI1
aI3
aI1
aI2
aI1
aI1
aI2
aI-1
aa(lp301
I1
aI1
aI1
aI1
aI2
aI1
aI1
aI1
aI1
aI2
aI-1
aa(lp302
I8
aI6
aI4
aI10
aI10
aI1
aI3
aI5
aI1
aI4
aI1
aa(lp303
I1
aI1
aI1
aI1
aI2
aI1
aI1
aI1
aI1
aI2
aI-1
aa(lp304
I1
aI1
aI1
aI1
aI1
aI1
aI2
aI1
aI1
aI2
aI-1
aa(lp305
I5
aI5
aI5
aI2
aI5
aI10
aI4
aI3
aI1
aI4
aI1
aa(lp306
I6
aI8
aI7
aI8
aI6
aI8
aI8
aI9
aI1
aI4
aI1
aa(lp307
I1
aI1
aI1
aI1
aI5
aI1
aI3
aI1
aI1
aI2
aI-1
aa(lp308
I4
aI4
aI4
aI4
aI6
aI5
aI7
aI3
aI1
aI2
aI-1
aa(lp309
I7
aI6
aI3
aI2
aI5
aI10
aI7
aI4
aI6
aI4
aI1
aa(lp310
I3
aI1
aI1
aI1
aI2
aI1
aI3
aI1
aI1
aI2
aI-1
aa(lp311
I5
aI4
aI6
aI10
aI2
aI10
aI4
aI1
aI1
aI4
aI1
aa(lp312
I1
aI1
aI1
aI1
aI2
aI1
aI3
aI1
aI1
aI2
aI-1
aa(lp313
I3
aI2
aI2
aI1
aI2
aI1
aI2
aI3
aI1
aI2
aI-1
aa(lp314
I10
aI1
aI1
aI1
aI2
aI10
aI5
aI4
aI1
aI4
aI1
aa(lp315
I1
aI1
aI1
aI1
aI2
aI1
aI2
aI1
aI1
aI2
aI-1
aa(lp316
I8
aI10
aI3
aI2
aI6
aI4
aI3
aI10
aI1
aI4
aI1
aa(lp317
I10
aI4
aI6
aI4
aI5
aI10
aI7
aI1
aI1
aI4
aI1
aa(lp318
I10
aI4
aI7
aI2
aI2
aI8
aI6
aI1
aI1
aI4
aI1
aa(lp319
I5
aI1
aI1
aI1
aI2
aI1
aI3
aI1
aI2
aI2
aI-1
aa(lp320
I5
aI2
aI2
aI2
aI2
aI1
aI2
aI2
aI1
aI2
aI-1
aa(lp321
I5
aI4
aI6
aI6
aI4
aI10
aI4
aI3
aI1
aI4
aI1
aa(lp322
I8
aI6
aI7
aI3
aI3
aI10
aI3
aI4
aI2
aI4
aI1
aa(lp323
I1
aI1
aI1
aI1
aI2
aI1
aI1
aI1
aI1
aI2
aI-1
aa(lp324
I6
aI5
aI5
aI8
aI4
aI10
aI3
aI4
aI1
aI4
aI1
aa(lp325
I1
aI1
aI1
aI1
aI2
aI1
aI3
aI1
aI1
aI2
aI-1
aa(lp326
I1
aI1
aI1
aI1
aI1
aI1
aI2
aI1
aI1
aI2
aI-1
aa(lp327
I8
aI5
aI5
aI5
aI2
aI10
aI4
aI3
aI1
aI4
aI1
aa(lp328
I10
aI3
aI3
aI1
aI2
aI10
aI7
aI6
aI1
aI4
aI1
aa(lp329
I1
aI1
aI1
aI1
aI2
aI1
aI3
aI1
aI1
aI2
aI-1
aa(lp330
I2
aI1
aI1
aI1
aI2
aI1
aI1
aI1
aI1
aI2
aI-1
aa(lp331
I1
aI1
aI1
aI1
aI2
aI1
aI1
aI1
aI1
aI2
aI-1
aa(lp332
I7
aI6
aI4
aI8
aI10
aI10
aI9
aI5
aI3
aI4
aI1
aa(lp333
I1
aI1
aI1
aI1
aI2
aI1
aI1
aI1
aI1
aI2
aI-1
aa(lp334
I5
aI2
aI2
aI2
aI3
aI1
aI1
aI3
aI1
aI2
aI-1
aa(lp335
I1
aI1
aI1
aI1
aI1
aI1
aI1
aI3
aI1
aI2
aI-1
aa(lp336
I3
aI4
aI4
aI10
aI5
aI1
aI3
aI3
aI1
aI4
aI1
aa(lp337
I4
aI2
aI3
aI5
aI3
aI8
aI7
aI6
aI1
aI4
aI1
aa(lp338
I5
aI1
aI1
aI3
aI2
aI1
aI1
aI1
aI1
aI2
aI-1
aa(lp339
I2
aI1
aI1
aI1
aI2
aI1
aI3
aI1
aI1
aI2
aI-1
aa(lp340
I3
aI4
aI5
aI3
aI7
aI3
aI4
aI6
aI1
aI2
aI-1
aa(lp341
I2
aI7
aI10
aI10
aI7
aI10
aI4
aI9
aI4
aI4
aI1
aa(lp342
I1
aI1
aI1
aI1
aI2
aI1
aI2
aI1
aI1
aI2
aI-1
aa(lp343
I4
aI1
aI1
aI1
aI3
aI1
aI2
aI2
aI1
aI2
aI-1
aa(lp344
I5
aI3
aI3
aI1
aI3
aI3
aI3
aI3
aI3
aI4
aI1
aa(lp345
I8
aI10
aI10
aI7
aI10
aI10
aI7
aI3
aI8
aI4
aI1
aa(lp346
I8
aI10
aI5
aI3
aI8
aI4
aI4
aI10
aI3
aI4
aI1
aa(lp347
I10
aI3
aI5
aI4
aI3
aI7
aI3
aI5
aI3
aI4
aI1
aa(lp348
I6
aI10
aI10
aI10
aI10
aI10
aI8
aI10
aI10
aI4
aI1
aa(lp349
I3
aI10
aI3
aI10
aI6
aI10
aI5
aI1
aI4
aI4
aI1
aa(lp350
I3
aI2
aI2
aI1
aI4
aI3
aI2
aI1
aI1
aI2
aI-1
aa(lp351
I4
aI4
aI4
aI2
aI2
aI3
aI2
aI1
aI1
aI2
aI-1
aa(lp352
I2
aI1
aI1
aI1
aI2
aI1
aI3
aI1
aI1
aI2
aI-1
aa(lp353
I2
aI1
aI1
aI1
aI2
aI1
aI2
aI1
aI1
aI2
aI-1
aa(lp354
I6
aI10
aI10
aI10
aI8
aI10
aI7
aI10
aI7
aI4
aI1
aa(lp355
I5
aI8
aI8
aI10
aI5
aI10
aI8
aI10
aI3
aI4
aI1
aa(lp356
I1
aI1
aI3
aI1
aI2
aI1
aI1
aI1
aI1
aI2
aI-1
aa(lp357
I1
aI1
aI3
aI1
aI1
aI1
aI2
aI1
aI1
aI2
aI-1
aa(lp358
I4
aI3
aI2
aI1
aI3
aI1
aI2
aI1
aI1
aI2
aI-1
aa(lp359
I1
aI1
aI3
aI1
aI2
aI1
aI1
aI1
aI1
aI2
aI-1
aa(lp360
I4
aI1
aI2
aI1
aI2
aI1
aI2
aI1
aI1
aI2
aI-1
aa(lp361
I5
aI1
aI1
aI2
aI2
aI1
aI2
aI1
aI1
aI2
aI-1
aa(lp362
I3
aI1
aI2
aI1
aI2
aI1
aI2
aI1
aI1
aI2
aI-1
aa(lp363
I1
aI1
aI1
aI1
aI2
aI1
aI1
aI1
aI1
aI2
aI-1
aa(lp364
I1
aI1
aI1
aI1
aI2
aI1
aI2
aI1
aI1
aI2
aI-1
aa(lp365
I1
aI1
aI1
aI1
aI1
aI1
aI2
aI1
aI1
aI2
aI-1
aa(lp366
I3
aI1
aI1
aI4
aI3
aI1
aI2
aI2
aI1
aI2
aI-1
aa(lp367
I5
aI3
aI4
aI1
aI4
aI1
aI3
aI1
aI1
aI2
aI-1
aa(lp368
I1
aI1
aI1
aI1
aI2
aI1
aI1
aI1
aI1
aI2
aI-1
aa(lp369
I10
aI6
aI3
aI6
aI4
aI10
aI7
aI8
aI4
aI4
aI1
aa(lp370
I3
aI2
aI2
aI2
aI2
aI1
aI3
aI2
aI1
aI2
aI-1
aa(lp371
I2
aI1
aI1
aI1
aI2
aI1
aI1
aI1
aI1
aI2
aI-1
aa(lp372
I2
aI1
aI1
aI1
aI2
aI1
aI1
aI1
aI1
aI2
aI-1
aa(lp373
I3
aI3
aI2
aI2
aI3
aI1
aI1
aI2
aI3
aI2
aI-1
aa(lp374
I7
aI6
aI6
aI3
aI2
aI10
aI7
aI1
aI1
aI4
aI1
aa(lp375
I5
aI3
aI3
aI2
aI3
aI1
aI3
aI1
aI1
aI2
aI-1
aa(lp376
I2
aI1
aI1
aI1
aI2
aI1
aI2
aI2
aI1
aI2
aI-1
aa(lp377
I5
aI1
aI1
aI1
aI3
aI2
aI2
aI2
aI1
aI2
aI-1
aa(lp378
I1
aI1
aI1
aI2
aI2
aI1
aI2
aI1
aI1
aI2
aI-1
aa(lp379
I10
aI8
aI7
aI4
aI3
aI10
aI7
aI9
aI1
aI4
aI1
aa(lp380
I3
aI1
aI1
aI1
aI2
aI1
aI2
aI1
aI1
aI2
aI-1
aa(lp381
I1
aI1
aI1
aI1
aI1
aI1
aI1
aI1
aI1
aI2
aI-1
aa(lp382
I1
aI2
aI3
aI1
aI2
aI1
aI2
aI1
aI1
aI2
aI-1
aa(lp383
I3
aI1
aI1
aI1
aI2
aI1
aI2
aI1
aI1
aI2
aI-1
aa(lp384
I3
aI1
aI1
aI1
aI2
aI1
aI3
aI1
aI1
aI2
aI-1
aa(lp385
I4
aI1
aI1
aI1
aI2
aI1
aI1
aI1
aI1
aI2
aI-1
aa(lp386
I3
aI2
aI1
aI1
aI2
aI1
aI2
aI2
aI1
aI2
aI-1
aa(lp387
I1
aI2
aI3
aI1
aI2
aI1
aI1
aI1
aI1
aI2
aI-1
aa(lp388
I3
aI10
aI8
aI7
aI6
aI9
aI9
aI3
aI8
aI4
aI1
aa(lp389
I3
aI1
aI1
aI1
aI2
aI1
aI1
aI1
aI1
aI2
aI-1
aa(lp390
I5
aI3
aI3
aI1
aI2
aI1
aI2
aI1
aI1
aI2
aI-1
aa(lp391
I3
aI1
aI1
aI1
aI2
aI4
aI1
aI1
aI1
aI2
aI-1
aa(lp392
I1
aI2
aI1
aI3
aI2
aI1
aI1
aI2
aI1
aI2
aI-1
aa(lp393
I1
aI1
aI1
aI1
aI2
aI1
aI2
aI1
aI1
aI2
aI-1
aa(lp394
I4
aI2
aI2
aI1
aI2
aI1
aI2
aI1
aI1
aI2
aI-1
aa(lp395
I1
aI1
aI1
aI1
aI2
aI1
aI2
aI1
aI1
aI2
aI-1
aa(lp396
I2
aI3
aI2
aI2
aI2
aI2
aI3
aI1
aI1
aI2
aI-1
aa(lp397
I3
aI1
aI2
aI1
aI2
aI1
aI2
aI1
aI1
aI2
aI-1
aa(lp398
I1
aI1
aI1
aI1
aI2
aI1
aI2
aI1
aI1
aI2
aI-1
aa(lp399
I10
aI10
aI10
aI6
aI8
aI4
aI8
aI5
aI1
aI4
aI1
aa(lp400
I5
aI1
aI2
aI1
aI2
aI1
aI3
aI1
aI1
aI2
aI-1
aa(lp401
I8
aI5
aI6
aI2
aI3
aI10
aI6
aI6
aI1
aI4
aI1
aa(lp402
I3
aI3
aI2
aI6
aI3
aI3
aI3
aI5
aI1
aI2
aI-1
aa(lp403
I8
aI7
aI8
aI5
aI10
aI10
aI7
aI2
aI1
aI4
aI1
aa(lp404
I1
aI1
aI1
aI1
aI2
aI1
aI2
aI1
aI1
aI2
aI-1
aa(lp405
I5
aI2
aI2
aI2
aI2
aI2
aI3
aI2
aI2
aI2
aI-1
aa(lp406
I2
aI3
aI1
aI1
aI5
aI1
aI1
aI1
aI1
aI2
aI-1
aa(lp407
I3
aI2
aI2
aI3
aI2
aI3
aI3
aI1
aI1
aI2
aI-1
aa(lp408
I10
aI10
aI10
aI7
aI10
aI10
aI8
aI2
aI1
aI4
aI1
aa(lp409
I4
aI3
aI3
aI1
aI2
aI1
aI3
aI3
aI1
aI2
aI-1
aa(lp410
I5
aI1
aI3
aI1
aI2
aI1
aI2
aI1
aI1
aI2
aI-1
aa(lp411
I3
aI1
aI1
aI1
aI2
aI1
aI1
aI1
aI1
aI2
aI-1
aa(lp412
I9
aI10
aI10
aI10
aI10
aI10
aI10
aI10
aI1
aI4
aI1
aa(lp413
I5
aI3
aI6
aI1
aI2
aI1
aI1
aI1
aI1
aI2
aI-1
aa(lp414
I8
aI7
aI8
aI2
aI4
aI2
aI5
aI10
aI1
aI4
aI1
aa(lp415
I1
aI1
aI1
aI1
aI2
aI1
aI2
aI1
aI1
aI2
aI-1
aa(lp416
I2
aI1
aI1
aI1
aI2
aI1
aI2
aI1
aI1
aI2
aI-1
aa(lp417
I1
aI3
aI1
aI1
aI2
aI1
aI2
aI2
aI1
aI2
aI-1
aa(lp418
I5
aI1
aI1
aI3
aI4
aI1
aI3
aI2
aI1
aI2
aI-1
aa(lp419
I5
aI1
aI1
aI1
aI2
aI1
aI2
aI2
aI1
aI2
aI-1
aa(lp420
I3
aI2
aI2
aI3
aI2
aI1
aI1
aI1
aI1
aI2
aI-1
aa(lp421
I6
aI9
aI7
aI5
aI5
aI8
aI4
aI2
aI1
aI2
aI-1
aa(lp422
I10
aI8
aI10
aI1
aI3
aI10
aI5
aI1
aI1
aI4
aI1
aa(lp423
I10
aI10
aI10
aI1
aI6
aI1
aI2
aI8
aI1
aI4
aI1
aa(lp424
I4
aI1
aI1
aI1
aI2
aI1
aI1
aI1
aI1
aI2
aI-1
aa(lp425
I4
aI1
aI3
aI3
aI2
aI1
aI1
aI1
aI1
aI2
aI-1
aa(lp426
I5
aI1
aI1
aI1
aI2
aI1
aI1
aI1
aI1
aI2
aI-1
aa(lp427
I10
aI4
aI3
aI10
aI4
aI10
aI10
aI1
aI1
aI4
aI1
aa(lp428
I5
aI2
aI2
aI4
aI2
aI4
aI1
aI1
aI1
aI2
aI-1
aa(lp429
I1
aI1
aI1
aI3
aI2
aI3
aI1
aI1
aI1
aI2
aI-1
aa(lp430
I1
aI1
aI1
aI1
aI2
aI2
aI1
aI1
aI1
aI2
aI-1
aa(lp431
I5
aI1
aI1
aI6
aI3
aI1
aI2
aI1
aI1
aI2
aI-1
aa(lp432
I2
aI1
aI1
aI1
aI2
aI1
aI1
aI1
aI1
aI2
aI-1
aa(lp433
I1
aI1
aI1
aI1
aI2
aI1
aI1
aI1
aI1
aI2
aI-1
aa(lp434
I5
aI1
aI1
aI1
aI2
aI1
aI1
aI1
aI1
aI2
aI-1
aa(lp435
I1
aI1
aI1
aI1
aI1
aI1
aI1
aI1
aI1
aI2
aI-1
aa(lp436
I5
aI7
aI9
aI8
aI6
aI10
aI8
aI10
aI1
aI4
aI1
aa(lp437
I4
aI1
aI1
aI3
aI1
aI1
aI2
aI1
aI1
aI2
aI-1
aa(lp438
I5
aI1
aI1
aI1
aI2
aI1
aI1
aI1
aI1
aI2
aI-1
aa(lp439
I3
aI1
aI1
aI3
aI2
aI1
aI1
aI1
aI1
aI2
aI-1
aa(lp440
I4
aI5
aI5
aI8
aI6
aI10
aI10
aI7
aI1
aI4
aI1
aa(lp441
I2
aI3
aI1
aI1
aI3
aI1
aI1
aI1
aI1
aI2
aI-1
aa(lp442
I10
aI2
aI2
aI1
aI2
aI6
aI1
aI1
aI2
aI4
aI1
aa(lp443
I10
aI6
aI5
aI8
aI5
aI10
aI8
aI6
aI1
aI4
aI1
aa(lp444
I8
aI8
aI9
aI6
aI6
aI3
aI10
aI10
aI1
aI4
aI1
aa(lp445
I5
aI1
aI2
aI1
aI2
aI1
aI1
aI1
aI1
aI2
aI-1
aa(lp446
I5
aI1
aI3
aI1
aI2
aI1
aI1
aI1
aI1
aI2
aI-1
aa(lp447
I5
aI1
aI1
aI3
aI2
aI1
aI1
aI1
aI1
aI2
aI-1
aa(lp448
I3
aI1
aI1
aI1
aI2
aI5
aI1
aI1
aI1
aI2
aI-1
aa(lp449
I6
aI1
aI1
aI3
aI2
aI1
aI1
aI1
aI1
aI2
aI-1
aa(lp450
I4
aI1
aI1
aI1
aI2
aI1
aI1
aI2
aI1
aI2
aI-1
aa(lp451
I4
aI1
aI1
aI1
aI2
aI1
aI1
aI1
aI1
aI2
aI-1
aa(lp452
I10
aI9
aI8
aI7
aI6
aI4
aI7
aI10
aI3
aI4
aI1
aa(lp453
I10
aI6
aI6
aI2
aI4
aI10
aI9
aI7
aI1
aI4
aI1
aa(lp454
I6
aI6
aI6
aI5
aI4
aI10
aI7
aI6
aI2
aI4
aI1
aa(lp455
I4
aI1
aI1
aI1
aI2
aI1
aI1
aI1
aI1
aI2
aI-1
aa(lp456
I1
aI1
aI2
aI1
aI2
aI1
aI2
aI1
aI1
aI2
aI-1
aa(lp457
I3
aI1
aI1
aI1
aI1
aI1
aI2
aI1
aI1
aI2
aI-1
aa(lp458
I6
aI1
aI1
aI3
aI2
aI1
aI1
aI1
aI1
aI2
aI-1
aa(lp459
I6
aI1
aI1
aI1
aI1
aI1
aI1
aI1
aI1
aI2
aI-1
aa(lp460
I4
aI1
aI1
aI1
aI2
aI1
aI1
aI1
aI1
aI2
aI-1
aa(lp461
I5
aI1
aI1
aI1
aI2
aI1
aI1
aI1
aI1
aI2
aI-1
aa(lp462
I3
aI1
aI1
aI1
aI2
aI1
aI1
aI1
aI1
aI2
aI-1
aa(lp463
I4
aI1
aI2
aI1
aI2
aI1
aI1
aI1
aI1
aI2
aI-1
aa(lp464
I4
aI1
aI1
aI1
aI2
aI1
aI1
aI1
aI1
aI2
aI-1
aa(lp465
I5
aI2
aI1
aI1
aI2
aI1
aI1
aI1
aI1
aI2
aI-1
aa(lp466
I4
aI8
aI7
aI10
aI4
aI10
aI7
aI5
aI1
aI4
aI1
aa(lp467
I5
aI1
aI1
aI1
aI1
aI1
aI1
aI1
aI1
aI2
aI-1
aa(lp468
I5
aI3
aI2
aI4
aI2
aI1
aI1
aI1
aI1
aI2
aI-1
aa(lp469
I9
aI10
aI10
aI10
aI10
aI5
aI10
aI10
aI10
aI4
aI1
aa(lp470
I8
aI7
aI8
aI5
aI5
aI10
aI9
aI10
aI1
aI4
aI1
aa(lp471
I5
aI1
aI2
aI1
aI2
aI1
aI1
aI1
aI1
aI2
aI-1
aa(lp472
I1
aI1
aI1
aI3
aI1
aI3
aI1
aI1
aI1
aI2
aI-1
aa(lp473
I3
aI1
aI1
aI1
aI1
aI1
aI2
aI1
aI1
aI2
aI-1
aa(lp474
I10
aI10
aI10
aI10
aI6
aI10
aI8
aI1
aI5
aI4
aI1
aa(lp475
I3
aI6
aI4
aI10
aI3
aI3
aI3
aI4
aI1
aI4
aI1
aa(lp476
I6
aI3
aI2
aI1
aI3
aI4
aI4
aI1
aI1
aI4
aI1
aa(lp477
I1
aI1
aI1
aI1
aI2
aI1
aI1
aI1
aI1
aI2
aI-1
aa(lp478
I5
aI8
aI9
aI4
aI3
aI10
aI7
aI1
aI1
aI4
aI1
aa(lp479
I4
aI1
aI1
aI1
aI1
aI1
aI2
aI1
aI1
aI2
aI-1
aa(lp480
I5
aI10
aI10
aI10
aI6
aI10
aI6
aI5
aI2
aI4
aI1
aa(lp481
I5
aI1
aI2
aI10
aI4
aI5
aI2
aI1
aI1
aI2
aI-1
aa(lp482
I3
aI1
aI1
aI1
aI1
aI1
aI2
aI1
aI1
aI2
aI-1
aa(lp483
I1
aI1
aI1
aI1
aI1
aI1
aI1
aI1
aI1
aI2
aI-1
aa(lp484
I4
aI2
aI1
aI1
aI2
aI1
aI1
aI1
aI1
aI2
aI-1
aa(lp485
I4
aI1
aI1
aI1
aI2
aI1
aI2
aI1
aI1
aI2
aI-1
aa(lp486
I4
aI1
aI1
aI1
aI2
aI1
aI2
aI1
aI1
aI2
aI-1
aa(lp487
I6
aI1
aI1
aI1
aI2
aI1
aI3
aI1
aI1
aI2
aI-1
aa(lp488
I4
aI1
aI1
aI1
aI2
aI1
aI2
aI1
aI1
aI2
aI-1
aa(lp489
I4
aI1
aI1
aI2
aI2
aI1
aI2
aI1
aI1
aI2
aI-1
aa(lp490
I4
aI1
aI1
aI1
aI2
aI1
aI3
aI1
aI1
aI2
aI-1
aa(lp491
I1
aI1
aI1
aI1
aI2
aI1
aI1
aI1
aI1
aI2
aI-1
aa(lp492
I3
aI3
aI1
aI1
aI2
aI1
aI1
aI1
aI1
aI2
aI-1
aa(lp493
I8
aI10
aI10
aI10
aI7
aI5
aI4
aI8
aI7
aI4
aI1
aa(lp494
I1
aI1
aI1
aI1
aI2
aI4
aI1
aI1
aI1
aI2
aI-1
aa(lp495
I5
aI1
aI1
aI1
aI2
aI1
aI1
aI1
aI1
aI2
aI-1
aa(lp496
I2
aI1
aI1
aI1
aI2
aI1
aI1
aI1
aI1
aI2
aI-1
aa(lp497
I1
aI1
aI1
aI1
aI2
aI1
aI1
aI1
aI1
aI2
aI-1
aa(lp498
I5
aI1
aI1
aI1
aI2
aI1
aI2
aI1
aI1
aI2
aI-1
aa(lp499
I5
aI1
aI1
aI1
aI2
aI1
aI1
aI1
aI1
aI2
aI-1
aa(lp500
I3
aI1
aI1
aI1
aI1
aI1
aI2
aI1
aI1
aI2
aI-1
aa(lp501
I6
aI6
aI7
aI10
aI3
aI10
aI8
aI10
aI2
aI4
aI1
aa(lp502
I4
aI10
aI4
aI7
aI3
aI10
aI9
aI10
aI1
aI4
aI1
aa(lp503
I1
aI1
aI1
aI1
aI1
aI1
aI1
aI1
aI1
aI2
aI-1
aa(lp504
I1
aI1
aI1
aI1
aI1
aI1
aI2
aI1
aI1
aI2
aI-1
aa(lp505
I3
aI1
aI2
aI2
aI2
aI1
aI1
aI1
aI1
aI2
aI-1
aa(lp506
I4
aI7
aI8
aI3
aI4
aI10
aI9
aI1
aI1
aI4
aI1
aa(lp507
I1
aI1
aI1
aI1
aI3
aI1
aI1
aI1
aI1
aI2
aI-1
aa(lp508
I4
aI1
aI1
aI1
aI3
aI1
aI1
aI1
aI1
aI2
aI-1
aa(lp509
I10
aI4
aI5
aI4
aI3
aI5
aI7
aI3
aI1
aI4
aI1
aa(lp510
I7
aI5
aI6
aI10
aI4
aI10
aI5
aI3
aI1
aI4
aI1
aa(lp511
I3
aI1
aI1
aI1
aI2
aI1
aI2
aI1
aI1
aI2
aI-1
aa(lp512
I3
aI1
aI1
aI2
aI2
aI1
aI1
aI1
aI1
aI2
aI-1
aa(lp513
I4
aI1
aI1
aI1
aI2
aI1
aI1
aI1
aI1
aI2
aI-1
aa(lp514
I4
aI1
aI1
aI1
aI2
aI1
aI3
aI1
aI1
aI2
aI-1
aa(lp515
I6
aI1
aI3
aI2
aI2
aI1
aI1
aI1
aI1
aI2
aI-1
aa(lp516
I4
aI1
aI1
aI1
aI1
aI1
aI2
aI1
aI1
aI2
aI-1
aa(lp517
I7
aI4
aI4
aI3
aI4
aI10
aI6
aI9
aI1
aI4
aI1
aa(lp518
I4
aI2
aI2
aI1
aI2
aI1
aI2
aI1
aI1
aI2
aI-1
aa(lp519
I1
aI1
aI1
aI1
aI1
aI1
aI3
aI1
aI1
aI2
aI-1
aa(lp520
I3
aI1
aI1
aI1
aI2
aI1
aI2
aI1
aI1
aI2
aI-1
aa(lp521
I2
aI1
aI1
aI1
aI2
aI1
aI2
aI1
aI1
aI2
aI-1
aa(lp522
I1
aI1
aI3
aI2
aI2
aI1
aI3
aI1
aI1
aI2
aI-1
aa(lp523
I5
aI1
aI1
aI1
aI2
aI1
aI3
aI1
aI1
aI2
aI-1
aa(lp524
I5
aI1
aI2
aI1
aI2
aI1
aI3
aI1
aI1
aI2
aI-1
aa(lp525
I4
aI1
aI1
aI1
aI2
aI1
aI2
aI1
aI1
aI2
aI-1
aa(lp526
I6
aI1
aI1
aI1
aI2
aI1
aI2
aI1
aI1
aI2
aI-1
aa(lp527
I5
aI1
aI1
aI1
aI2
aI2
aI2
aI1
aI1
aI2
aI-1
aa(lp528
I3
aI1
aI1
aI1
aI2
aI1
aI1
aI1
aI1
aI2
aI-1
aa(lp529
I5
aI3
aI1
aI1
aI2
aI1
aI1
aI1
aI1
aI2
aI-1
aa(lp530
I4
aI1
aI1
aI1
aI2
aI1
aI2
aI1
aI1
aI2
aI-1
aa(lp531
I2
aI1
aI3
aI2
aI2
aI1
aI2
aI1
aI1
aI2
aI-1
aa(lp532
I5
aI1
aI1
aI1
aI2
aI1
aI2
aI1
aI1
aI2
aI-1
aa(lp533
I6
aI10
aI10
aI10
aI4
aI10
aI7
aI10
aI1
aI4
aI1
aa(lp534
I2
aI1
aI1
aI1
aI1
aI1
aI1
aI1
aI1
aI2
aI-1
aa(lp535
I3
aI1
aI1
aI1
aI1
aI1
aI1
aI1
aI1
aI2
aI-1
aa(lp536
I7
aI8
aI3
aI7
aI4
aI5
aI7
aI8
aI2
aI4
aI1
aa(lp537
I3
aI1
aI1
aI1
aI2
aI1
aI2
aI1
aI1
aI2
aI-1
aa(lp538
I1
aI1
aI1
aI1
aI2
aI1
aI3
aI1
aI1
aI2
aI-1
aa(lp539
I3
aI2
aI2
aI2
aI2
aI1
aI4
aI2
aI1
aI2
aI-1
aa(lp540
I4
aI4
aI2
aI1
aI2
aI5
aI2
aI1
aI2
aI2
aI-1
aa(lp541
I3
aI1
aI1
aI1
aI2
aI1
aI1
aI1
aI1
aI2
aI-1
aa(lp542
I4
aI3
aI1
aI1
aI2
aI1
aI4
aI8
aI1
aI2
aI-1
aa(lp543
I5
aI2
aI2
aI2
aI1
aI1
aI2
aI1
aI1
aI2
aI-1
aa(lp544
I5
aI1
aI1
aI3
aI2
aI1
aI1
aI1
aI1
aI2
aI-1
aa(lp545
I2
aI1
aI1
aI1
aI2
aI1
aI2
aI1
aI1
aI2
aI-1
aa(lp546
I5
aI1
aI1
aI1
aI2
aI1
aI2
aI1
aI1
aI2
aI-1
aa(lp547
I5
aI1
aI1
aI1
aI2
aI1
aI3
aI1
aI1
aI2
aI-1
aa(lp548
I5
aI1
aI1
aI1
aI2
aI1
aI3
aI1
aI1
aI2
aI-1
aa(lp549
I1
aI1
aI1
aI1
aI2
aI1
aI3
aI1
aI1
aI2
aI-1
aa(lp550
I3
aI1
aI1
aI1
aI2
aI1
aI2
aI1
aI1
aI2
aI-1
aa(lp551
I4
aI1
aI1
aI1
aI2
aI1
aI3
aI2
aI1
aI2
aI-1
aa(lp552
I5
aI7
aI10
aI10
aI5
aI10
aI10
aI10
aI1
aI4
aI1
aa(lp553
I3
aI1
aI2
aI1
aI2
aI1
aI3
aI1
aI1
aI2
aI-1
aa(lp554
I4
aI1
aI1
aI1
aI2
aI3
aI2
aI1
aI1
aI2
aI-1
aa(lp555
I8
aI4
aI4
aI1
aI6
aI10
aI2
aI5
aI2
aI4
aI1
aa(lp556
I10
aI10
aI8
aI10
aI6
aI5
aI10
aI3
aI1
aI4
aI1
aa(lp557
I8
aI10
aI4
aI4
aI8
aI10
aI8
aI2
aI1
aI4
aI1
aa(lp558
I7
aI6
aI10
aI5
aI3
aI10
aI9
aI10
aI2
aI4
aI1
aa(lp559
I3
aI1
aI1
aI1
aI2
aI1
aI2
aI1
aI1
aI2
aI-1
aa(lp560
I1
aI1
aI1
aI1
aI2
aI1
aI2
aI1
aI1
aI2
aI-1
aa(lp561
I10
aI9
aI7
aI3
aI4
aI2
aI7
aI7
aI1
aI4
aI1
aa(lp562
I5
aI1
aI2
aI1
aI2
aI1
aI3
aI1
aI1
aI2
aI-1
aa(lp563
I5
aI1
aI1
aI1
aI2
aI1
aI2
aI1
aI1
aI2
aI-1
aa(lp564
I1
aI1
aI1
aI1
aI2
aI1
aI2
aI1
aI1
aI2
aI-1
aa(lp565
I1
aI1
aI1
aI1
aI2
aI1
aI2
aI1
aI1
aI2
aI-1
aa(lp566
I1
aI1
aI1
aI1
aI2
aI1
aI3
aI1
aI1
aI2
aI-1
aa(lp567
I5
aI1
aI2
aI1
aI2
aI1
aI2
aI1
aI1
aI2
aI-1
aa(lp568
I5
aI7
aI10
aI6
aI5
aI10
aI7
aI5
aI1
aI4
aI1
aa(lp569
I6
aI10
aI5
aI5
aI4
aI10
aI6
aI10
aI1
aI4
aI1
aa(lp570
I3
aI1
aI1
aI1
aI2
aI1
aI1
aI1
aI1
aI2
aI-1
aa(lp571
I5
aI1
aI1
aI6
aI3
aI1
aI1
aI1
aI1
aI2
aI-1
aa(lp572
I1
aI1
aI1
aI1
aI2
aI1
aI1
aI1
aI1
aI2
aI-1
aa(lp573
I8
aI10
aI10
aI10
aI6
aI10
aI10
aI10
aI1
aI4
aI1
aa(lp574
I5
aI1
aI1
aI1
aI2
aI1
aI2
aI2
aI1
aI2
aI-1
aa(lp575
I9
aI8
aI8
aI9
aI6
aI3
aI4
aI1
aI1
aI4
aI1
aa(lp576
I5
aI1
aI1
aI1
aI2
aI1
aI1
aI1
aI1
aI2
aI-1
aa(lp577
I4
aI10
aI8
aI5
aI4
aI1
aI10
aI1
aI1
aI4
aI1
aa(lp578
I2
aI5
aI7
aI6
aI4
aI10
aI7
aI6
aI1
aI4
aI1
aa(lp579
I10
aI3
aI4
aI5
aI3
aI10
aI4
aI1
aI1
aI4
aI1
aa(lp580
I5
aI1
aI2
aI1
aI2
aI1
aI1
aI1
aI1
aI2
aI-1
aa(lp581
I4
aI8
aI6
aI3
aI4
aI10
aI7
aI1
aI1
aI4
aI1
aa(lp582
I5
aI1
aI1
aI1
aI2
aI1
aI2
aI1
aI1
aI2
aI-1
aa(lp583
I4
aI1
aI2
aI1
aI2
aI1
aI2
aI1
aI1
aI2
aI-1
aa(lp584
I5
aI1
aI3
aI1
aI2
aI1
aI3
aI1
aI1
aI2
aI-1
aa(lp585
I3
aI1
aI1
aI1
aI2
aI1
aI2
aI1
aI1
aI2
aI-1
aa(lp586
I5
aI2
aI4
aI1
aI1
aI1
aI1
aI1
aI1
aI2
aI-1
aa(lp587
I3
aI1
aI1
aI1
aI2
aI1
aI2
aI1
aI1
aI2
aI-1
aa(lp588
I1
aI1
aI1
aI1
aI1
aI1
aI2
aI1
aI1
aI2
aI-1
aa(lp589
I4
aI1
aI1
aI1
aI2
aI1
aI2
aI1
aI1
aI2
aI-1
aa(lp590
I5
aI4
aI6
aI8
aI4
aI1
aI8
aI10
aI1
aI4
aI1
aa(lp591
I5
aI3
aI2
aI8
aI5
aI10
aI8
aI1
aI2
aI4
aI1
aa(lp592
I10
aI5
aI10
aI3
aI5
aI8
aI7
aI8
aI3
aI4
aI1
aa(lp593
I4
aI1
aI1
aI2
aI2
aI1
aI1
aI1
aI1
aI2
aI-1
aa(lp594
I1
aI1
aI1
aI1
aI2
aI1
aI1
aI1
aI1
aI2
aI-1
aa(lp595
I5
aI10
aI10
aI10
aI10
aI10
aI10
aI1
aI1
aI4
aI1
aa(lp596
I5
aI1
aI1
aI1
aI2
aI1
aI1
aI1
aI1
aI2
aI-1
aa(lp597
I10
aI4
aI3
aI10
aI3
aI10
aI7
aI1
aI2
aI4
aI1
aa(lp598
I5
aI10
aI10
aI10
aI5
aI2
aI8
aI5
aI1
aI4
aI1
aa(lp599
I8
aI10
aI10
aI10
aI6
aI10
aI10
aI10
aI10
aI4
aI1
aa(lp600
I2
aI3
aI1
aI1
aI2
aI1
aI2
aI1
aI1
aI2
aI-1
aa(lp601
I2
aI1
aI1
aI1
aI1
aI1
aI2
aI1
aI1
aI2
aI-1
aa(lp602
I4
aI1
aI3
aI1
aI2
aI1
aI2
aI1
aI1
aI2
aI-1
aa(lp603
I3
aI1
aI1
aI1
aI2
aI1
aI2
aI1
aI1
aI2
aI-1
aa(lp604
I4
aI1
aI1
aI1
aI2
aI1
aI2
aI1
aI1
aI2
aI-1
aa(lp605
I5
aI1
aI1
aI1
aI2
aI1
aI2
aI1
aI1
aI2
aI-1
aa(lp606
I3
aI1
aI1
aI1
aI2
aI1
aI2
aI1
aI1
aI2
aI-1
aa(lp607
I6
aI3
aI3
aI3
aI3
aI2
aI6
aI1
aI1
aI2
aI-1
aa(lp608
I7
aI1
aI2
aI3
aI2
aI1
aI2
aI1
aI1
aI2
aI-1
aa(lp609
I1
aI1
aI1
aI1
aI2
aI1
aI1
aI1
aI1
aI2
aI-1
aa(lp610
I5
aI1
aI1
aI2
aI1
aI1
aI2
aI1
aI1
aI2
aI-1
aa(lp611
I3
aI1
aI3
aI1
aI3
aI4
aI1
aI1
aI1
aI2
aI-1
aa(lp612
I4
aI6
aI6
aI5
aI7
aI6
aI7
aI7
aI3
aI4
aI1
aa(lp613
I2
aI1
aI1
aI1
aI2
aI5
aI1
aI1
aI1
aI2
aI-1
aa(lp614
I2
aI1
aI1
aI1
aI2
aI1
aI1
aI1
aI1
aI2
aI-1
aa(lp615
I4
aI1
aI1
aI1
aI2
aI1
aI1
aI1
aI1
aI2
aI-1
aa(lp616
I6
aI2
aI3
aI1
aI2
aI1
aI1
aI1
aI1
aI2
aI-1
aa(lp617
I5
aI1
aI1
aI1
aI2
aI1
aI2
aI1
aI1
aI2
aI-1
aa(lp618
I1
aI1
aI1
aI1
aI2
aI1
aI1
aI1
aI1
aI2
aI-1
aa(lp619
I8
aI7
aI4
aI4
aI5
aI3
aI5
aI10
aI1
aI4
aI1
aa(lp620
I3
aI1
aI1
aI1
aI2
aI1
aI1
aI1
aI1
aI2
aI-1
aa(lp621
I3
aI1
aI4
aI1
aI2
aI1
aI1
aI1
aI1
aI2
aI-1
aa(lp622
I10
aI10
aI7
aI8
aI7
aI1
aI10
aI10
aI3
aI4
aI1
aa(lp623
I4
aI2
aI4
aI3
aI2
aI2
aI2
aI1
aI1
aI2
aI-1
aa(lp624
I4
aI1
aI1
aI1
aI2
aI1
aI1
aI1
aI1
aI2
aI-1
aa(lp625
I5
aI1
aI1
aI3
aI2
aI1
aI1
aI1
aI1
aI2
aI-1
aa(lp626
I4
aI1
aI1
aI3
aI2
aI1
aI1
aI1
aI1
aI2
aI-1
aa(lp627
I3
aI1
aI1
aI1
aI2
aI1
aI2
aI1
aI1
aI2
aI-1
aa(lp628
I3
aI1
aI1
aI1
aI2
aI1
aI2
aI1
aI1
aI2
aI-1
aa(lp629
I1
aI1
aI1
aI1
aI2
aI1
aI1
aI1
aI1
aI2
aI-1
aa(lp630
I2
aI1
aI1
aI1
aI2
aI1
aI1
aI1
aI1
aI2
aI-1
aa(lp631
I3
aI1
aI1
aI1
aI2
aI1
aI2
aI1
aI1
aI2
aI-1
aa(lp632
I1
aI2
aI2
aI1
aI2
aI1
aI1
aI1
aI1
aI2
aI-1
aa(lp633
I1
aI1
aI1
aI3
aI2
aI1
aI1
aI1
aI1
aI2
aI-1
aa(lp634
I5
aI10
aI10
aI10
aI10
aI2
aI10
aI10
aI10
aI4
aI1
aa(lp635
I3
aI1
aI1
aI1
aI2
aI1
aI2
aI1
aI1
aI2
aI-1
aa(lp636
I3
aI1
aI1
aI2
aI3
aI4
aI1
aI1
aI1
aI2
aI-1
aa(lp637
I1
aI2
aI1
aI3
aI2
aI1
aI2
aI1
aI1
aI2
aI-1
aa(lp638
I5
aI1
aI1
aI1
aI2
aI1
aI2
aI2
aI1
aI2
aI-1
aa(lp639
I4
aI1
aI1
aI1
aI2
aI1
aI2
aI1
aI1
aI2
aI-1
aa(lp640
I3
aI1
aI1
aI1
aI2
aI1
aI3
aI1
aI1
aI2
aI-1
aa(lp641
I3
aI1
aI1
aI1
aI2
aI1
aI2
aI1
aI1
aI2
aI-1
aa(lp642
I5
aI1
aI1
aI1
aI2
aI1
aI2
aI1
aI1
aI2
aI-1
aa(lp643
I5
aI4
aI5
aI1
aI8
aI1
aI3
aI6
aI1
aI2
aI-1
aa(lp644
I7
aI8
aI8
aI7
aI3
aI10
aI7
aI2
aI3
aI4
aI1
aa(lp645
I1
aI1
aI1
aI1
aI2
aI1
aI1
aI1
aI1
aI2
aI-1
aa(lp646
I1
aI1
aI1
aI1
aI2
aI1
aI2
aI1
aI1
aI2
aI-1
aa(lp647
I4
aI1
aI1
aI1
aI2
aI1
aI3
aI1
aI1
aI2
aI-1
aa(lp648
I1
aI1
aI3
aI1
aI2
aI1
aI2
aI1
aI1
aI2
aI-1
aa(lp649
I1
aI1
aI3
aI1
aI2
aI1
aI2
aI1
aI1
aI2
aI-1
aa(lp650
I3
aI1
aI1
aI3
aI2
aI1
aI2
aI1
aI1
aI2
aI-1
aa(lp651
I1
aI1
aI1
aI1
aI2
aI1
aI1
aI1
aI1
aI2
aI-1
aa(lp652
I5
aI2
aI2
aI2
aI2
aI1
aI1
aI1
aI2
aI2
aI-1
aa(lp653
I3
aI1
aI1
aI1
aI2
aI1
aI3
aI1
aI1
aI2
aI-1
aa(lp654
I5
aI7
aI4
aI1
aI6
aI1
aI7
aI10
aI3
aI4
aI1
aa(lp655
I5
aI10
aI10
aI8
aI5
aI5
aI7
aI10
aI1
aI4
aI1
aa(lp656
I3
aI10
aI7
aI8
aI5
aI8
aI7
aI4
aI1
aI4
aI1
aa(lp657
I3
aI2
aI1
aI2
aI2
aI1
aI3
aI1
aI1
aI2
aI-1
aa(lp658
I2
aI1
aI1
aI1
aI2
aI1
aI3
aI1
aI1
aI2
aI-1
aa(lp659
I5
aI3
aI2
aI1
aI3
aI1
aI1
aI1
aI1
aI2
aI-1
aa(lp660
I1
aI1
aI1
aI1
aI2
aI1
aI2
aI1
aI1
aI2
aI-1
aa(lp661
I4
aI1
aI4
aI1
aI2
aI1
aI1
aI1
aI1
aI2
aI-1
aa(lp662
I1
aI1
aI2
aI1
aI2
aI1
aI2
aI1
aI1
aI2
aI-1
aa(lp663
I5
aI1
aI1
aI1
aI2
aI1
aI1
aI1
aI1
aI2
aI-1
aa(lp664
I1
aI1
aI1
aI1
aI2
aI1
aI1
aI1
aI1
aI2
aI-1
aa(lp665
I2
aI1
aI1
aI1
aI2
aI1
aI1
aI1
aI1
aI2
aI-1
aa(lp666
I10
aI10
aI10
aI10
aI5
aI10
aI10
aI10
aI7
aI4
aI1
aa(lp667
I5
aI10
aI10
aI10
aI4
aI10
aI5
aI6
aI3
aI4
aI1
aa(lp668
I5
aI1
aI1
aI1
aI2
aI1
aI3
aI2
aI1
aI2
aI-1
aa(lp669
I1
aI1
aI1
aI1
aI2
aI1
aI1
aI1
aI1
aI2
aI-1
aa(lp670
I1
aI1
aI1
aI1
aI2
aI1
aI1
aI1
aI1
aI2
aI-1
aa(lp671
I1
aI1
aI1
aI1
aI2
aI1
aI1
aI1
aI1
aI2
aI-1
aa(lp672
I1
aI1
aI1
aI1
aI2
aI1
aI1
aI1
aI1
aI2
aI-1
aa(lp673
I3
aI1
aI1
aI1
aI2
aI1
aI2
aI3
aI1
aI2
aI-1
aa(lp674
I4
aI1
aI1
aI1
aI2
aI1
aI1
aI1
aI1
aI2
aI-1
aa(lp675
I1
aI1
aI1
aI1
aI2
aI1
aI1
aI1
aI8
aI2
aI-1
aa(lp676
I1
aI1
aI1
aI3
aI2
aI1
aI1
aI1
aI1
aI2
aI-1
aa(lp677
I5
aI10
aI10
aI5
aI4
aI5
aI4
aI4
aI1
aI4
aI1
aa(lp678
I3
aI1
aI1
aI1
aI2
aI1
aI1
aI1
aI1
aI2
aI-1
aa(lp679
I3
aI1
aI1
aI1
aI2
aI1
aI2
aI1
aI2
aI2
aI-1
aa(lp680
I3
aI1
aI1
aI1
aI3
aI2
aI1
aI1
aI1
aI2
aI-1
aa(lp681
I2
aI1
aI1
aI1
aI2
aI1
aI1
aI1
aI1
aI2
aI-1
aa(lp682
I5
aI10
aI10
aI3
aI7
aI3
aI8
aI10
aI2
aI4
aI1
aa(lp683
I4
aI8
aI6
aI4
aI3
aI4
aI10
aI6
aI1
aI4
aI1
aa(lp684
I4
aI8
aI8
aI5
aI4
aI5
aI10
aI4
aI1
aI4
aI1
aa.