(lp1
(lp2
I63
aI1
aI1
aI145
aI233
aI1
aI2
aI150
aI0
aI2
aI3
aI0
aI6
aI-1
aa(lp3
I67
aI1
aI4
aI160
aI286
aI0
aI2
aI108
aI1
aI1
aI2
aI3
aI3
aI1
aa(lp4
I67
aI1
aI4
aI120
aI229
aI0
aI2
aI129
aI1
aI2
aI2
aI2
aI7
aI1
aa(lp5
I37
aI1
aI3
aI130
aI250
aI0
aI0
aI187
aI0
aI3
aI3
aI0
aI3
aI-1
aa(lp6
I41
aI0
aI2
aI130
aI204
aI0
aI2
aI172
aI0
aI1
aI1
aI0
aI3
aI-1
aa(lp7
I56
aI1
aI2
aI120
aI236
aI0
aI0
aI178
aI0
aI0
aI1
aI0
aI3
aI-1
aa(lp8
I62
aI0
aI4
aI140
aI268
aI0
aI2
aI160
aI0
aI3
aI3
aI2
aI3
aI1
aa(lp9
I57
aI0
aI4
aI120
aI354
aI0
aI0
aI163
aI1
aI0
aI1
aI0
aI3
aI-1
aa(lp10
I63
aI1
aI4
aI130
aI254
aI0
aI2
aI147
aI0
aI1
aI2
aI1
aI7
aI1
aa(lp11
I53
aI1
aI4
aI140
aI203
aI1
aI2
aI155
aI1
aI3
aI3
aI0
aI7
aI1
aa(lp12
I57
aI1
aI4
aI140
aI192
aI0
aI0
aI148
aI0
aI0
aI2
aI0
aI6
aI-1
aa(lp13
I56
aI0
aI2
aI140
aI294
aI0
aI2
aI153
aI0
aI1
aI2
aI0
aI3
aI-1
aa(lp14
I56
aI1
aI3
aI130
aI256
aI1
aI2
aI142
aI1
aI0
aI2
aI1
aI6
aI1
aa(lp15
I44
aI1
aI2
aI120
aI263
aI0
aI0
aI173
aI0
aI0
aI1
aI0
aI7
aI-1
aa(lp16
I52
aI1
aI3
aI172
aI199
aI1
aI0
aI162
aI0
aI0
aI1
aI0
aI7
aI-1
aa(lp17
I57
aI1
aI3
aI150
aI168
aI0
aI0
aI174
aI0
aI1
aI1
aI0
aI3
aI-1
aa(lp18
I48
aI1
aI2
aI110
aI229
aI0
aI0
aI168
aI0
aI1
aI3
aI0
aI7
aI1
aa(lp19
I54
aI1
aI4
aI140
aI239
aI0
aI0
aI160
aI0
aI1
aI1
aI0
aI3
aI-1
aa(lp20
I48
aI0
aI3
aI130
aI275
aI0
aI0
aI139
aI0
aI0
aI1
aI0
aI3
aI-1
aa(lp21
I49
aI1
aI2
aI130
aI266
aI0
aI0
aI171
aI0
aI0
aI1
aI0
aI3
aI-1
aa(lp22
I64
aI1
aI1
aI110
aI211
aI0
aI2
aI144
aI1
aI1
aI2
aI0
aI3
aI-1
aa(lp23
I58
aI0
aI1
aI150
aI283
aI1
aI2
aI162
aI0
aI1
aI1
aI0
aI3
aI-1
aa(lp24
I58
aI1
aI2
aI120
aI284
aI0
aI2
aI160
aI0
aI1
aI2
aI0
aI3
aI1
aa(lp25
I58
aI1
aI3
aI132
aI224
aI0
aI2
aI173
aI0
aI3
aI1
aI2
aI7
aI1
aa(lp26
I60
aI1
aI4
aI130
aI206
aI0
aI2
aI132
aI1
aI2
aI2
aI2
aI7
aI1
aa(lp27
I50
aI0
aI3
aI120
aI219
aI0
aI0
aI158
aI0
aI1
aI2
aI0
aI3
aI-1
aa(lp28
I58
aI0
aI3
aI120
aI340
aI0
aI0
aI172
aI0
aI0
aI1
aI0
aI3
aI-1
aa(lp29
I66
aI0
aI1
aI150
aI226
aI0
aI0
aI114
aI0
aI2
aI3
aI0
aI3
aI-1
aa(lp30
I43
aI1
aI4
aI150
aI247
aI0
aI0
aI171
aI0
aI1
aI1
aI0
aI3
aI-1
aa(lp31
I40
aI1
aI4
aI110
aI167
aI0
aI2
aI114
aI1
aI2
aI2
aI0
aI7
aI1
aa(lp32
I69
aI0
aI1
aI140
aI239
aI0
aI0
aI151
aI0
aI1
aI1
aI2
aI3
aI-1
aa(lp33
I60
aI1
aI4
aI117
aI230
aI1
aI0
aI160
aI1
aI1
aI1
aI2
aI7
aI1
aa(lp34
I64
aI1
aI3
aI140
aI335
aI0
aI0
aI158
aI0
aI0
aI1
aI0
aI3
aI1
aa(lp35
I59
aI1
aI4
aI135
aI234
aI0
aI0
aI161
aI0
aI0
aI2
aI0
aI7
aI-1
aa(lp36
I44
aI1
aI3
aI130
aI233
aI0
aI0
aI179
aI1
aI0
aI1
aI0
aI3
aI-1
aa(lp37
I42
aI1
aI4
aI140
aI226
aI0
aI0
aI178
aI0
aI0
aI1
aI0
aI3
aI-1
aa(lp38
I43
aI1
aI4
aI120
aI177
aI0
aI2
aI120
aI1
aI2
aI2
aI0
aI7
aI1
aa(lp39
I57
aI1
aI4
aI150
aI276
aI0
aI2
aI112
aI1
aI0
aI2
aI1
aI6
aI1
aa(lp40
I55
aI1
aI4
aI132
aI353
aI0
aI0
aI132
aI1
aI1
aI2
aI1
aI7
aI1
aa(lp41
I61
aI1
aI3
aI150
aI243
aI1
aI0
aI137
aI1
aI1
aI2
aI0
aI3
aI-1
aa(lp42
I65
aI0
aI4
aI150
aI225
aI0
aI2
aI114
aI0
aI1
aI2
aI3
aI7
aI1
aa(lp43
I40
aI1
aI1
aI140
aI199
aI0
aI0
aI178
aI1
aI1
aI1
aI0
aI7
aI-1
aa(lp44
I71
aI0
aI2
aI160
aI302
aI0
aI0
aI162
aI0
aI0
aI1
aI2
aI3
aI-1
aa(lp45
I59
aI1
aI3
aI150
aI212
aI1
aI0
aI157
aI0
aI1
aI1
aI0
aI3
aI-1
aa(lp46
I61
aI0
aI4
aI130
aI330
aI0
aI2
aI169
aI0
aI0
aI1
aI0
aI3
aI1
aa(lp47
I58
aI1
aI3
aI112
aI230
aI0
aI2
aI165
aI0
aI2
aI2
aI1
aI7
aI1
aa(lp48
I51
aI1
aI3
aI110
aI175
aI0
aI0
aI123
aI0
aI0
aI1
aI0
aI3
aI-1
aa(lp49
I50
aI1
aI4
aI150
aI243
aI0
aI2
aI128
aI0
aI2
aI2
aI0
aI7
aI1
aa(lp50
I65
aI0
aI3
aI140
aI417
aI1
aI2
aI157
aI0
aI0
aI1
aI1
aI3
aI-1
aa(lp51
I53
aI1
aI3
aI130
aI197
aI1
aI2
aI152
aI0
aI1
aI3
aI0
aI3
aI-1
aa(lp52
I41
aI0
aI2
aI105
aI198
aI0
aI0
aI168
aI0
aI0
aI1
aI1
aI3
aI-1
aa(lp53
I65
aI1
aI4
aI120
aI177
aI0
aI0
aI140
aI0
aI0
aI1
aI0
aI7
aI-1
aa(lp54
I44
aI1
aI4
aI112
aI290
aI0
aI2
aI153
aI0
aI0
aI1
aI1
aI3
aI1
aa(lp55
I44
aI1
aI2
aI130
aI219
aI0
aI2
aI188
aI0
aI0
aI1
aI0
aI3
aI-1
aa(lp56
I60
aI1
aI4
aI130
aI253
aI0
aI0
aI144
aI1
aI1
aI1
aI1
aI7
aI1
aa(lp57
I54
aI1
aI4
aI124
aI266
aI0
aI2
aI109
aI1
aI2
aI2
aI1
aI7
aI1
aa(lp58
I50
aI1
aI3
aI140
aI233
aI0
aI0
aI163
aI0
aI0
aI2
aI1
aI7
aI1
aa(lp59
I41
aI1
aI4
aI110
aI172
aI0
aI2
aI158
aI0
aI0
aI1
aI0
aI7
aI1
aa(lp60
I54
aI1
aI3
aI125
aI273
aI0
aI2
aI152
aI0
aI0
aI3
aI1
aI3
aI-1
aa(lp61
I51
aI1
aI1
aI125
aI213
aI0
aI2
aI125
aI1
aI1
aI1
aI1
aI3
aI-1
aa(lp62
I51
aI0
aI4
aI130
aI305
aI0
aI0
aI142
aI1
aI1
aI2
aI0
aI7
aI1
aa(lp63
I46
aI0
aI3
aI142
aI177
aI0
aI2
aI160
aI1
aI1
aI3
aI0
aI3
aI-1
aa(lp64
I58
aI1
aI4
aI128
aI216
aI0
aI2
aI131
aI1
aI2
aI2
aI3
aI7
aI1
aa(lp65
I54
aI0
aI3
aI135
aI304
aI1
aI0
aI170
aI0
aI0
aI1
aI0
aI3
aI-1
aa(lp66
I54
aI1
aI4
aI120
aI188
aI0
aI0
aI113
aI0
aI1
aI2
aI1
aI7
aI1
aa(lp67
I60
aI1
aI4
aI145
aI282
aI0
aI2
aI142
aI1
aI2
aI2
aI2
aI7
aI1
aa(lp68
I60
aI1
aI3
aI140
aI185
aI0
aI2
aI155
aI0
aI3
aI2
aI0
aI3
aI1
aa(lp69
I54
aI1
aI3
aI150
aI232
aI0
aI2
aI165
aI0
aI1
aI1
aI0
aI7
aI-1
aa(lp70
I59
aI1
aI4
aI170
aI326
aI0
aI2
aI140
aI1
aI3
aI3
aI0
aI7
aI1
aa(lp71
I46
aI1
aI3
aI150
aI231
aI0
aI0
aI147
aI0
aI3
aI2
aI0
aI3
aI1
aa(lp72
I65
aI0
aI3
aI155
aI269
aI0
aI0
aI148
aI0
aI0
aI1
aI0
aI3
aI-1
aa(lp73
I67
aI1
aI4
aI125
aI254
aI1
aI0
aI163
aI0
aI0
aI2
aI2
aI7
aI1
aa(lp74
I62
aI1
aI4
aI120
aI267
aI0
aI0
aI99
aI1
aI1
aI2
aI2
aI7
aI1
aa(lp75
I65
aI1
aI4
aI110
aI248
aI0
aI2
aI158
aI0
aI0
aI1
aI2
aI6
aI1
aa(lp76
I44
aI1
aI4
aI110
aI197
aI0
aI2
aI177
aI0
aI0
aI1
aI1
aI3
aI1
aa(lp77
I65
aI0
aI3
aI160
aI360
aI0
aI2
aI151
aI0
aI0
aI1
aI0
aI3
aI-1
aa(lp78
I60
aI1
aI4
aI125
aI258
aI0
aI2
aI141
aI1
aI2
aI2
aI1
aI7
aI1
aa(lp79
I51
aI0
aI3
aI140
aI308
aI0
aI2
aI142
aI0
aI1
aI1
aI1
aI3
aI-1
aa(lp80
I48
aI1
aI2
aI130
aI245
aI0
aI2
aI180
aI0
aI0
aI2
aI0
aI3
aI-1
aa(lp81
I58
aI1
aI4
aI150
aI270
aI0
aI2
aI111
aI1
aI0
aI1
aI0
aI7
aI1
aa(lp82
I45
aI1
aI4
aI104
aI208
aI0
aI2
aI148
aI1
aI3
aI2
aI0
aI3
aI-1
aa(lp83
I53
aI0
aI4
aI130
aI264
aI0
aI2
aI143
aI0
aI0
aI2
aI0
aI3
aI-1
aa(lp84
I39
aI1
aI3
aI140
aI321
aI0
aI2
aI182
aI0
aI0
aI1
aI0
aI3
aI-1
aa(lp85
I68
aI1
aI3
aI180
aI274
aI1
aI2
aI150
aI1
aI1
aI2
aI0
aI7
aI1
aa(lp86
I52
aI1
aI2
aI120
aI325
aI0
aI0
aI172
aI0
aI0
aI1
aI0
aI3
aI-1
aa(lp87
I44
aI1
aI3
aI140
aI235
aI0
aI2
aI180
aI0
aI0
aI1
aI0
aI3
aI-1
aa(lp88
I47
aI1
aI3
aI138
aI257
aI0
aI2
aI156
aI0
aI0
aI1
aI0
aI3
aI-1
aa(lp89
I53
aI0
aI4
aI138
aI234
aI0
aI2
aI160
aI0
aI0
aI1
aI0
aI3
aI-1
aa(lp90
I51
aI0
aI3
aI130
aI256
aI0
aI2
aI149
aI0
aI0
aI1
aI0
aI3
aI-1
aa(lp91
I66
aI1
aI4
aI120
aI302
aI0
aI2
aI151
aI0
aI0
aI2
aI0
aI3
aI-1
aa(lp92
I62
aI0
aI4
aI160
aI164
aI0
aI2
aI145
aI0
aI6
aI3
aI3
aI7
aI1
aa(lp93
I62
aI1
aI3
aI130
aI231
aI0
aI0
aI146
aI0
aI1
aI2
aI3
aI7
aI-1
aa(lp94
I44
aI0
aI3
aI108
aI141
aI0
aI0
aI175
aI0
aI0
aI2
aI0
aI3
aI-1
aa(lp95
I63
aI0
aI3
aI135
aI252
aI0
aI2
aI172
aI0
aI0
aI1
aI0
aI3
aI-1
aa(lp96
I52
aI1
aI4
aI128
aI255
aI0
aI0
aI161
aI1
aI0
aI1
aI1
aI7
aI1
aa(lp97
I59
aI1
aI4
aI110
aI239
aI0
aI2
aI142
aI1
aI1
aI2
aI1
aI7
aI1
aa(lp98
I60
aI0
aI4
aI150
aI258
aI0
aI2
aI157
aI0
aI2
aI2
aI2
aI7
aI1
aa(lp99
I52
aI1
aI2
aI134
aI201
aI0
aI0
aI158
aI0
aI0
aI1
aI1
aI3
aI-1
aa(lp100
I48
aI1
aI4
aI122
aI222
aI0
aI2
aI186
aI0
aI0
aI1
aI0
aI3
aI-1
aa(lp101
I45
aI1
aI4
aI115
aI260
aI0
aI2
aI185
aI0
aI0
aI1
aI0
aI3
aI-1
aa(lp102
I34
aI1
aI1
aI118
aI182
aI0
aI2
aI174
aI0
aI0
aI1
aI0
aI3
aI-1
aa(lp103
I57
aI0
aI4
aI128
aI303
aI0
aI2
aI159
aI0
aI0
aI1
aI1
aI3
aI-1
aa(lp104
I71
aI0
aI3
aI110
aI265
aI1
aI2
aI130
aI0
aI0
aI1
aI1
aI3
aI-1
aa(lp105
I49
aI1
aI3
aI120
aI188
aI0
aI0
aI139
aI0
aI2
aI2
aI3
aI7
aI1
aa(lp106
I54
aI1
aI2
aI108
aI309
aI0
aI0
aI156
aI0
aI0
aI1
aI0
aI7
aI-1
aa(lp107
I59
aI1
aI4
aI140
aI177
aI0
aI0
aI162
aI1
aI0
aI1
aI1
aI7
aI1
aa(lp108
I57
aI1
aI3
aI128
aI229
aI0
aI2
aI150
aI0
aI0
aI2
aI1
aI7
aI1
aa(lp109
I61
aI1
aI4
aI120
aI260
aI0
aI0
aI140
aI1
aI3
aI2
aI1
aI7
aI1
aa(lp110
I39
aI1
aI4
aI118
aI219
aI0
aI0
aI140
aI0
aI1
aI2
aI0
aI7
aI1
aa(lp111
I61
aI0
aI4
aI145
aI307
aI0
aI2
aI146
aI1
aI1
aI2
aI0
aI7
aI1
aa(lp112
I56
aI1
aI4
aI125
aI249
aI1
aI2
aI144
aI1
aI1
aI2
aI1
aI3
aI1
aa(lp113
I52
aI1
aI1
aI118
aI186
aI0
aI2
aI190
aI0
aI0
aI2
aI0
aI6
aI-1
aa(lp114
I43
aI0
aI4
aI132
aI341
aI1
aI2
aI136
aI1
aI3
aI2
aI0
aI7
aI1
aa(lp115
I62
aI0
aI3
aI130
aI263
aI0
aI0
aI97
aI0
aI1
aI2
aI1
aI7
aI1
aa(lp116
I41
aI1
aI2
aI135
aI203
aI0
aI0
aI132
aI0
aI0
aI2
aI0
aI6
aI-1
aa(lp117
I58
aI1
aI3
aI140
aI211
aI1
aI2
aI165
aI0
aI0
aI1
aI0
aI3
aI-1
aa(lp118
I35
aI0
aI4
aI138
aI183
aI0
aI0
aI182
aI0
aI1
aI1
aI0
aI3
aI-1
aa(lp119
I63
aI1
aI4
aI130
aI330
aI1
aI2
aI132
aI1
aI1
aI1
aI3
aI7
aI1
aa(lp120
I65
aI1
aI4
aI135
aI254
aI0
aI2
aI127
aI0
aI2
aI2
aI1
aI7
aI1
aa(lp121
I48
aI1
aI4
aI130
aI256
aI1
aI2
aI150
aI1
aI0
aI1
aI2
aI7
aI1
aa(lp122
I63
aI0
aI4
aI150
aI407
aI0
aI2
aI154
aI0
aI4
aI2
aI3
aI7
aI1
aa(lp123
I51
aI1
aI3
aI100
aI222
aI0
aI0
aI143
aI1
aI1
aI2
aI0
aI3
aI-1
aa(lp124
I55
aI1
aI4
aI140
aI217
aI0
aI0
aI111
aI1
aI5
aI3
aI0
aI7
aI1
aa(lp125
I65
aI1
aI1
aI138
aI282
aI1
aI2
aI174
aI0
aI1
aI2
aI1
aI3
aI1
aa(lp126
I45
aI0
aI2
aI130
aI234
aI0
aI2
aI175
aI0
aI0
aI2
aI0
aI3
aI-1
aa(lp127
I56
aI0
aI4
aI200
aI288
aI1
aI2
aI133
aI1
aI4
aI3
aI2
aI7
aI1
aa(lp128
I54
aI1
aI4
aI110
aI239
aI0
aI0
aI126
aI1
aI2
aI2
aI1
aI7
aI1
aa(lp129
I44
aI1
aI2
aI120
aI220
aI0
aI0
aI170
aI0
aI0
aI1
aI0
aI3
aI-1
aa(lp130
I62
aI0
aI4
aI124
aI209
aI0
aI0
aI163
aI0
aI0
aI1
aI0
aI3
aI-1
aa(lp131
I54
aI1
aI3
aI120
aI258
aI0
aI2
aI147
aI0
aI0
aI2
aI0
aI7
aI-1
aa(lp132
I51
aI1
aI3
aI94
aI227
aI0
aI0
aI154
aI1
aI0
aI1
aI1
aI7
aI-1
aa(lp133
I29
aI1
aI2
aI130
aI204
aI0
aI2
aI202
aI0
aI0
aI1
aI0
aI3
aI-1
aa(lp134
I51
aI1
aI4
aI140
aI261
aI0
aI2
aI186
aI1
aI0
aI1
aI0
aI3
aI-1
aa(lp135
I43
aI0
aI3
aI122
aI213
aI0
aI0
aI165
aI0
aI0
aI2
aI0
aI3
aI-1
aa(lp136
I55
aI0
aI2
aI135
aI250
aI0
aI2
aI161
aI0
aI1
aI2
aI0
aI3
aI-1
aa(lp137
I70
aI1
aI4
aI145
aI174
aI0
aI0
aI125
aI1
aI2
aI3
aI0
aI7
aI1
aa(lp138
I62
aI1
aI2
aI120
aI281
aI0
aI2
aI103
aI0
aI1
aI2
aI1
aI7
aI1
aa(lp139
I35
aI1
aI4
aI120
aI198
aI0
aI0
aI130
aI1
aI1
aI2
aI0
aI7
aI1
aa(lp140
I51
aI1
aI3
aI125
aI245
aI1
aI2
aI166
aI0
aI2
aI2
aI0
aI3
aI-1
aa(lp141
I59
aI1
aI2
aI140
aI221
aI0
aI0
aI164
aI1
aI0
aI1
aI0
aI3
aI-1
aa(lp142
I59
aI1
aI1
aI170
aI288
aI0
aI2
aI159
aI0
aI0
aI2
aI0
aI7
aI1
aa(lp143
I52
aI1
aI2
aI128
aI205
aI1
aI0
aI184
aI0
aI0
aI1
aI0
aI3
aI-1
aa(lp144
I64
aI1
aI3
aI125
aI309
aI0
aI0
aI131
aI1
aI1
aI2
aI0
aI7
aI1
aa(lp145
I58
aI1
aI3
aI105
aI240
aI0
aI2
aI154
aI1
aI0
aI2
aI0
aI7
aI-1
aa(lp146
I47
aI1
aI3
aI108
aI243
aI0
aI0
aI152
aI0
aI0
aI1
aI0
aI3
aI1
aa(lp147
I57
aI1
aI4
aI165
aI289
aI1
aI2
aI124
aI0
aI1
aI2
aI3
aI7
aI1
aa(lp148
I41
aI1
aI3
aI112
aI250
aI0
aI0
aI179
aI0
aI0
aI1
aI0
aI3
aI-1
aa(lp149
I45
aI1
aI2
aI128
aI308
aI0
aI2
aI170
aI0
aI0
aI1
aI0
aI3
aI-1
aa(lp150
I60
aI0
aI3
aI102
aI318
aI0
aI0
aI160
aI0
aI0
aI1
aI1
aI3
aI-1
aa(lp151
I52
aI1
aI1
aI152
aI298
aI1
aI0
aI178
aI0
aI1
aI2
aI0
aI7
aI-1
aa(lp152
I42
aI0
aI4
aI102
aI265
aI0
aI2
aI122
aI0
aI0
aI2
aI0
aI3
aI-1
aa(lp153
I67
aI0
aI3
aI115
aI564
aI0
aI2
aI160
aI0
aI1
aI2
aI0
aI7
aI-1
aa(lp154
I55
aI1
aI4
aI160
aI289
aI0
aI2
aI145
aI1
aI0
aI2
aI1
aI7
aI1
aa(lp155
I64
aI1
aI4
aI120
aI246
aI0
aI2
aI96
aI1
aI2
aI3
aI1
aI3
aI1
aa(lp156
I70
aI1
aI4
aI130
aI322
aI0
aI2
aI109
aI0
aI2
aI2
aI3
aI3
aI1
aa(lp157
I51
aI1
aI4
aI140
aI299
aI0
aI0
aI173
aI1
aI1
aI1
aI0
aI7
aI1
aa(lp158
I58
aI1
aI4
aI125
aI300
aI0
aI2
aI171
aI0
aI0
aI1
aI2
aI7
aI1
aa(lp159
I60
aI1
aI4
aI140
aI293
aI0
aI2
aI170
aI0
aI1
aI2
aI2
aI7
aI1
aa(lp160
I68
aI1
aI3
aI118
aI277
aI0
aI0
aI151
aI0
aI1
aI1
aI1
aI7
aI-1
aa(lp161
I46
aI1
aI2
aI101
aI197
aI1
aI0
aI156
aI0
aI0
aI1
aI0
aI7
aI-1
aa(lp162
I77
aI1
aI4
aI125
aI304
aI0
aI2
aI162
aI1
aI0
aI1
aI3
aI3
aI1
aa(lp163
I54
aI0
aI3
aI110
aI214
aI0
aI0
aI158
aI0
aI1
aI2
aI0
aI3
aI-1
aa(lp164
I58
aI0
aI4
aI100
aI248
aI0
aI2
aI122
aI0
aI1
aI2
aI0
aI3
aI-1
aa(lp165
I48
aI1
aI3
aI124
aI255
aI1
aI0
aI175
aI0
aI0
aI1
aI2
aI3
aI-1
aa(lp166
I57
aI1
aI4
aI132
aI207
aI0
aI0
aI168
aI1
aI0
aI1
aI0
aI7
aI-1
aa(lp167
I54
aI0
aI2
aI132
aI288
aI1
aI2
aI159
aI1
aI0
aI1
aI1
aI3
aI-1
aa(lp168
I35
aI1
aI4
aI126
aI282
aI0
aI2
aI156
aI1
aI0
aI1
aI0
aI7
aI1
aa(lp169
I45
aI0
aI2
aI112
aI160
aI0
aI0
aI138
aI0
aI0
aI2
aI0
aI3
aI-1
aa(lp170
I70
aI1
aI3
aI160
aI269
aI0
aI0
aI112
aI1
aI2
aI2
aI1
aI7
aI1
aa(lp171
I53
aI1
aI4
aI142
aI226
aI0
aI2
aI111
aI1
aI0
aI1
aI0
aI7
aI-1
aa(lp172
I59
aI0
aI4
aI174
aI249
aI0
aI0
aI143
aI1
aI0
aI2
aI0
aI3
aI1
aa(lp173
I62
aI0
aI4
aI140
aI394
aI0
aI2
aI157
aI0
aI1
aI2
aI0
aI3
aI-1
aa(lp174
I64
aI1
aI4
aI145
aI212
aI0
aI2
aI132
aI0
aI2
aI2
aI2
aI6
aI1
aa(lp175
I57
aI1
aI4
aI152
aI274
aI0
aI0
aI88
aI1
aI1
aI2
aI1
aI7
aI1
aa(lp176
I52
aI1
aI4
aI108
aI233
aI1
aI0
aI147
aI0
aI0
aI1
aI3
aI7
aI-1
aa(lp177
I56
aI1
aI4
aI132
aI184
aI0
aI2
aI105
aI1
aI2
aI2
aI1
aI6
aI1
aa(lp178
I43
aI1
aI3
aI130
aI315
aI0
aI0
aI162
aI0
aI1
aI1
aI1
aI3
aI-1
aa(lp179
I53
aI1
aI3
aI130
aI246
aI1
aI2
aI173
aI0
aI0
aI1
aI3
aI3
aI-1
aa(lp180
I48
aI1
aI4
aI124
aI274
aI0
aI2
aI166
aI0
aI0
aI2
aI0
aI7
aI1
aa(lp181
I56
aI0
aI4
aI134
aI409
aI0
aI2
aI150
aI1
aI1
aI2
aI2
aI7
aI1
aa(lp182
I42
aI1
aI1
aI148
aI244
aI0
aI2
aI178
aI0
aI0
aI1
aI2
aI3
aI-1
aa(lp183
I59
aI1
aI1
aI178
aI270
aI0
aI2
aI145
aI0
aI4
aI3
aI0
aI7
aI-1
aa(lp184
I60
aI0
aI4
aI158
aI305
aI0
aI2
aI161
aI0
aI0
aI1
aI0
aI3
aI1
aa(lp185
I63
aI0
aI2
aI140
aI195
aI0
aI0
aI179
aI0
aI0
aI1
aI2
aI3
aI-1
aa(lp186
I42
aI1
aI3
aI120
aI240
aI1
aI0
aI194
aI0
aI0
aI3
aI0
aI7
aI-1
aa(lp187
I66
aI1
aI2
aI160
aI246
aI0
aI0
aI120
aI1
aI0
aI2
aI3
aI6
aI1
aa(lp188
I54
aI1
aI2
aI192
aI283
aI0
aI2
aI195
aI0
aI0
aI1
aI1
aI7
aI1
aa(lp189
I69
aI1
aI3
aI140
aI254
aI0
aI2
aI146
aI0
aI2
aI2
aI3
aI7
aI1
aa(lp190
I50
aI1
aI3
aI129
aI196
aI0
aI0
aI163
aI0
aI0
aI1
aI0
aI3
aI-1
aa(lp191
I51
aI1
aI4
aI140
aI298
aI0
aI0
aI122
aI1
aI4
aI2
aI3
aI7
aI1
aa(lp192
I62
aI0
aI4
aI138
aI294
aI1
aI0
aI106
aI0
aI1
aI2
aI3
aI3
aI1
aa(lp193
I68
aI0
aI3
aI120
aI211
aI0
aI2
aI115
aI0
aI1
aI2
aI0
aI3
aI-1
aa(lp194
I67
aI1
aI4
aI100
aI299
aI0
aI2
aI125
aI1
aI0
aI2
aI2
aI3
aI1
aa(lp195
I69
aI1
aI1
aI160
aI234
aI1
aI2
aI131
aI0
aI0
aI2
aI1
aI3
aI-1
aa(lp196
I45
aI0
aI4
aI138
aI236
aI0
aI2
aI152
aI1
aI0
aI2
aI0
aI3
aI-1
aa(lp197
I50
aI0
aI2
aI120
aI244
aI0
aI0
aI162
aI0
aI1
aI1
aI0
aI3
aI-1
aa(lp198
I59
aI1
aI1
aI160
aI273
aI0
aI2
aI125
aI0
aI0
aI1
aI0
aI3
aI1
aa(lp199
I50
aI0
aI4
aI110
aI254
aI0
aI2
aI159
aI0
aI0
aI1
aI0
aI3
aI-1
aa(lp200
I64
aI0
aI4
aI180
aI325
aI0
aI0
aI154
aI1
aI0
aI1
aI0
aI3
aI-1
aa(lp201
I57
aI1
aI3
aI150
aI126
aI1
aI0
aI173
aI0
aI0
aI1
aI1
aI7
aI-1
aa(lp202
I64
aI0
aI3
aI140
aI313
aI0
aI0
aI133
aI0
aI0
aI1
aI0
aI7
aI-1
aa(lp203
I43
aI1
aI4
aI110
aI211
aI0
aI0
aI161
aI0
aI0
aI1
aI0
aI7
aI-1
aa(lp204
I45
aI1
aI4
aI142
aI309
aI0
aI2
aI147
aI1
aI0
aI2
aI3
aI7
aI1
aa(lp205
I58
aI1
aI4
aI128
aI259
aI0
aI2
aI130
aI1
aI3
aI2
aI2
aI7
aI1
aa(lp206
I50
aI1
aI4
aI144
aI200
aI0
aI2
aI126
aI1
aI0
aI2
aI0
aI7
aI1
aa(lp207
I55
aI1
aI2
aI130
aI262
aI0
aI0
aI155
aI0
aI0
aI1
aI0
aI3
aI-1
aa(lp208
I62
aI0
aI4
aI150
aI244
aI0
aI0
aI154
aI1
aI1
aI2
aI0
aI3
aI1
aa(lp209
I37
aI0
aI3
aI120
aI215
aI0
aI0
aI170
aI0
aI0
aI1
aI0
aI3
aI-1
aa(lp210
I38
aI1
aI1
aI120
aI231
aI0
aI0
aI182
aI1
aI3
aI2
aI0
aI7
aI1
aa(lp211
I41
aI1
aI3
aI130
aI214
aI0
aI2
aI168
aI0
aI2
aI2
aI0
aI3
aI-1
aa(lp212
I66
aI0
aI4
aI178
aI228
aI1
aI0
aI165
aI1
aI1
aI2
aI2
aI7
aI1
aa(lp213
I52
aI1
aI4
aI112
aI230
aI0
aI0
aI160
aI0
aI0
aI1
aI1
aI3
aI1
aa(lp214
I56
aI1
aI1
aI120
aI193
aI0
aI2
aI162
aI0
aI1
aI2
aI0
aI7
aI-1
aa(lp215
I46
aI0
aI2
aI105
aI204
aI0
aI0
aI172
aI0
aI0
aI1
aI0
aI3
aI-1
aa(lp216
I46
aI0
aI4
aI138
aI243
aI0
aI2
aI152
aI1
aI0
aI2
aI0
aI3
aI-1
aa(lp217
I64
aI0
aI4
aI130
aI303
aI0
aI0
aI122
aI0
aI2
aI2
aI2
aI3
aI-1
aa(lp218
I59
aI1
aI4
aI138
aI271
aI0
aI2
aI182
aI0
aI0
aI1
aI0
aI3
aI-1
aa(lp219
I41
aI0
aI3
aI112
aI268
aI0
aI2
aI172
aI1
aI0
aI1
aI0
aI3
aI-1
aa(lp220
I54
aI0
aI3
aI108
aI267
aI0
aI2
aI167
aI0
aI0
aI1
aI0
aI3
aI-1
aa(lp221
I39
aI0
aI3
aI94
aI199
aI0
aI0
aI179
aI0
aI0
aI1
aI0
aI3
aI-1
aa(lp222
I53
aI1
aI4
aI123
aI282
aI0
aI0
aI95
aI1
aI2
aI2
aI2
aI7
aI1
aa(lp223
I63
aI0
aI4
aI108
aI269
aI0
aI0
aI169
aI1
aI1
aI2
aI2
aI3
aI1
aa(lp224
I34
aI0
aI2
aI118
aI210
aI0
aI0
aI192
aI0
aI0
aI1
aI0
aI3
aI-1
aa(lp225
I47
aI1
aI4
aI112
aI204
aI0
aI0
aI143
aI0
aI0
aI1
aI0
aI3
aI-1
aa(lp226
I67
aI0
aI3
aI152
aI277
aI0
aI0
aI172
aI0
aI0
aI1
aI1
aI3
aI-1
aa(lp227
I54
aI1
aI4
aI110
aI206
aI0
aI2
aI108
aI1
aI0
aI2
aI1
aI3
aI1
aa(lp228
I66
aI1
aI4
aI112
aI212
aI0
aI2
aI132
aI1
aI0
aI1
aI1
aI3
aI1
aa(lp229
I52
aI0
aI3
aI136
aI196
aI0
aI2
aI169
aI0
aI0
aI2
aI0
aI3
aI-1
aa(lp230
I55
aI0
aI4
aI180
aI327
aI0
aI1
aI117
aI1
aI3
aI2
aI0
aI3
aI1
aa(lp231
I49
aI1
aI3
aI118
aI149
aI0
aI2
aI126
aI0
aI0
aI1
aI3
aI3
aI1
aa(lp232
I74
aI0
aI2
aI120
aI269
aI0
aI2
aI121
aI1
aI0
aI1
aI1
aI3
aI-1
aa(lp233
I54
aI0
aI3
aI160
aI201
aI0
aI0
aI163
aI0
aI0
aI1
aI1
aI3
aI-1
aa(lp234
I54
aI1
aI4
aI122
aI286
aI0
aI2
aI116
aI1
aI3
aI2
aI2
aI3
aI1
aa(lp235
I56
aI1
aI4
aI130
aI283
aI1
aI2
aI103
aI1
aI1
aI3
aI0
aI7
aI1
aa(lp236
I46
aI1
aI4
aI120
aI249
aI0
aI2
aI144
aI0
aI0
aI1
aI0
aI7
aI1
aa(lp237
I49
aI0
aI2
aI134
aI271
aI0
aI0
aI162
aI0
aI0
aI2
aI0
aI3
aI-1
aa(lp238
I42
aI1
aI2
aI120
aI295
aI0
aI0
aI162
aI0
aI0
aI1
aI0
aI3
aI-1
aa(lp239
I41
aI1
aI2
aI110
aI235
aI0
aI0
aI153
aI0
aI0
aI1
aI0
aI3
aI-1
aa(lp240
I41
aI0
aI2
aI126
aI306
aI0
aI0
aI163
aI0
aI0
aI1
aI0
aI3
aI-1
aa(lp241
I49
aI0
aI4
aI130
aI269
aI0
aI0
aI163
aI0
aI0
aI1
aI0
aI3
aI-1
aa(lp242
I61
aI1
aI1
aI134
aI234
aI0
aI0
aI145
aI0
aI2
aI2
aI2
aI3
aI1
aa(lp243
I60
aI0
aI3
aI120
aI178
aI1
aI0
aI96
aI0
aI0
aI1
aI0
aI3
aI-1
aa(lp244
I67
aI1
aI4
aI120
aI237
aI0
aI0
aI71
aI0
aI1
aI2
aI0
aI3
aI1
aa(lp245
I58
aI1
aI4
aI100
aI234
aI0
aI0
aI156
aI0
aI0
aI1
aI1
aI7
aI1
aa(lp246
I47
aI1
aI4
aI110
aI275
aI0
aI2
aI118
aI1
aI1
aI2
aI1
aI3
aI1
aa(lp247
I52
aI1
aI4
aI125
aI212
aI0
aI0
aI168
aI0
aI1
aI1
aI2
aI7
aI1
aa(lp248
I62
aI1
aI2
aI128
aI208
aI1
aI2
aI140
aI0
aI0
aI1
aI0
aI3
aI-1
aa(lp249
I57
aI1
aI4
aI110
aI201
aI0
aI0
aI126
aI1
aI1
aI2
aI0
aI6
aI-1
aa(lp250
I58
aI1
aI4
aI146
aI218
aI0
aI0
aI105
aI0
aI2
aI2
aI1
aI7
aI1
aa(lp251
I64
aI1
aI4
aI128
aI263
aI0
aI0
aI105
aI1
aI0
aI2
aI1
aI7
aI-1
aa(lp252
I51
aI0
aI3
aI120
aI295
aI0
aI2
aI157
aI0
aI0
aI1
aI0
aI3
aI-1
aa(lp253
I43
aI1
aI4
aI115
aI303
aI0
aI0
aI181
aI0
aI1
aI2
aI0
aI3
aI-1
aa(lp254
I42
aI0
aI3
aI120
aI209
aI0
aI0
aI173
aI0
aI0
aI2
aI0
aI3
aI-1
aa(lp255
I67
aI0
aI4
aI106
aI223
aI0
aI0
aI142
aI0
aI0
aI1
aI2
aI3
aI-1
aa(lp256
I76
aI0
aI3
aI140
aI197
aI0
aI1
aI116
aI0
aI1
aI2
aI0
aI3
aI-1
aa(lp257
I70
aI1
aI2
aI156
aI245
aI0
aI2
aI143
aI0
aI0
aI1
aI0
aI3
aI-1
aa(lp258
I57
aI1
aI2
aI124
aI261
aI0
aI0
aI141
aI0
aI0
aI1
aI0
aI7
aI1
aa(lp259
I44
aI0
aI3
aI118
aI242
aI0
aI0
aI149
aI0
aI0
aI2
aI1
aI3
aI-1
aa(lp260
I58
aI0
aI2
aI136
aI319
aI1
aI2
aI152
aI0
aI0
aI1
aI2
aI3
aI1
aa(lp261
I60
aI0
aI1
aI150
aI240
aI0
aI0
aI171
aI0
aI0
aI1
aI0
aI3
aI-1
aa(lp262
I44
aI1
aI3
aI120
aI226
aI0
aI0
aI169
aI0
aI0
aI1
aI0
aI3
aI-1
aa(lp263
I61
aI1
aI4
aI138
aI166
aI0
aI2
aI125
aI1
aI3
aI2
aI1
aI3
aI1
aa(lp264
I42
aI1
aI4
aI136
aI315
aI0
aI0
aI125
aI1
aI1
aI2
aI0
aI6
aI1
aa(lp265
I59
aI1
aI3
aI126
aI218
aI1
aI0
aI134
aI0
aI2
aI2
aI1
aI6
aI1
aa(lp266
I40
aI1
aI4
aI152
aI223
aI0
aI0
aI181
aI0
aI0
aI1
aI0
aI7
aI1
aa(lp267
I42
aI1
aI3
aI130
aI180
aI0
aI0
aI150
aI0
aI0
aI1
aI0
aI3
aI-1
aa(lp268
I61
aI1
aI4
aI140
aI207
aI0
aI2
aI138
aI1
aI1
aI1
aI1
aI7
aI1
aa(lp269
I66
aI1
aI4
aI160
aI228
aI0
aI2
aI138
aI0
aI2
aI1
aI0
aI6
aI-1
aa(lp270
I46
aI1
aI4
aI140
aI311
aI0
aI0
aI120
aI1
aI1
aI2
aI2
aI7
aI1
aa(lp271
I71
aI0
aI4
aI112
aI149
aI0
aI0
aI125
aI0
aI1
aI2
aI0
aI3
aI-1
aa(lp272
I59
aI1
aI1
aI134
aI204
aI0
aI0
aI162
aI0
aI0
aI1
aI2
aI3
aI1
aa(lp273
I64
aI1
aI1
aI170
aI227
aI0
aI2
aI155
aI0
aI0
aI2
aI0
aI7
aI-1
aa(lp274
I66
aI0
aI3
aI146
aI278
aI0
aI2
aI152
aI0
aI0
aI2
aI1
aI3
aI-1
aa(lp275
I39
aI0
aI3
aI138
aI220
aI0
aI0
aI152
aI0
aI0
aI2
aI0
aI3
aI-1
aa(lp276
I57
aI1
aI2
aI154
aI232
aI0
aI2
aI164
aI0
aI0
aI1
aI1
aI3
aI1
aa(lp277
I58
aI0
aI4
aI130
aI197
aI0
aI0
aI131
aI0
aI0
aI2
aI0
aI3
aI-1
aa(lp278
I57
aI1
aI4
aI110
aI335
aI0
aI0
aI143
aI1
aI3
aI2
aI1
aI7
aI1
aa(lp279
I47
aI1
aI3
aI130
aI253
aI0
aI0
aI179
aI0
aI0
aI1
aI0
aI3
aI-1
aa(lp280
I55
aI0
aI4
aI128
aI205
aI0
aI1
aI130
aI1
aI2
aI2
aI1
aI7
aI1
aa(lp281
I35
aI1
aI2
aI122
aI192
aI0
aI0
aI174
aI0
aI0
aI1
aI0
aI3
aI-1
aa(lp282
I61
aI1
aI4
aI148
aI203
aI0
aI0
aI161
aI0
aI0
aI1
aI1
aI7
aI1
aa(lp283
I58
aI1
aI4
aI114
aI318
aI0
aI1
aI140
aI0
aI4
aI3
aI3
aI6
aI1
aa(lp284
I58
aI0
aI4
aI170
aI225
aI1
aI2
aI146
aI1
aI2
aI2
aI2
aI6
aI1
aa(lp285
I56
aI1
aI2
aI130
aI221
aI0
aI2
aI163
aI0
aI0
aI1
aI0
aI7
aI-1
aa(lp286
I56
aI1
aI2
aI120
aI240
aI0
aI0
aI169
aI0
aI0
aI3
aI0
aI3
aI-1
aa(lp287
I67
aI1
aI3
aI152
aI212
aI0
aI2
aI150
aI0
aI0
aI2
aI0
aI7
aI1
aa(lp288
I55
aI0
aI2
aI132
aI342
aI0
aI0
aI166
aI0
aI1
aI1
aI0
aI3
aI-1
aa(lp289
I44
aI1
aI4
aI120
aI169
aI0
aI0
aI144
aI1
aI2
aI3
aI0
aI6
aI1
aa(lp290
I63
aI1
aI4
aI140
aI187
aI0
aI2
aI144
aI1
aI4
aI1
aI2
aI7
aI1
aa(lp291
I63
aI0
aI4
aI124
aI197
aI0
aI0
aI136
aI1
aI0
aI2
aI0
aI3
aI1
aa(lp292
I41
aI1
aI2
aI120
aI157
aI0
aI0
aI182
aI0
aI0
aI1
aI0
aI3
aI-1
aa(lp293
I59
aI1
aI4
aI164
aI176
aI1
aI2
aI90
aI0
aI1
aI2
aI2
aI6
aI1
aa(lp294
I57
aI0
aI4
aI140
aI241
aI0
aI0
aI123
aI1
aI0
aI2
aI0
aI7
aI1
aa(lp295
I45
aI1
aI1
aI110
aI264
aI0
aI0
aI132
aI0
aI1
aI2
aI0
aI7
aI1
aa(lp296
I68
aI1
aI4
aI144
aI193
aI1
aI0
aI141
aI0
aI3
aI2
aI2
aI7
aI1
aa(lp297
I57
aI1
aI4
aI130
aI131
aI0
aI0
aI115
aI1
aI1
aI2
aI1
aI7
aI1
aa(lp298
I57
aI0
aI2
aI130
aI236
aI0
aI2
aI174
aI0
aI0
aI2
aI1
aI3
aI1
aa.