(lp1
(lp2
I110
aI122
aI105
aI0
aI0
aI0
aI0
aI0
aI0
aI0
aI0
aI0
aI0
aI0
aI0
aI25
aI0
aI0
aI-5
aI0
aI1
aI0
aI1
aa(lp3
I115
aI123
aI108
aI0
aI0
aI0
aI0
aI0
aI0
aI0
aI0
aI0
aI0
aI0
aI0
aI26
aI0
aI0
aI-5
aI0
aI1
aI0
aI-1
aa(lp4
I116
aI131
aI108
aI0
aI0
aI0
aI0
aI0
aI0
aI0
aI0
aI0
aI0
aI0
aI0
aI22
aI0
aI0
aI-4
aI0
aI1
aI0
aI1
aa(lp5
I122
aI148
aI113
aI0
aI0
aI0
aI0
aI0
aI0
aI0
aI0
aI0
aI0
aI0
aI0
aI19
aI0
aI0
aI-4
aI0
aI2
aI0
aI1
aa(lp6
I142
aI162
aI65
aI0
aI0
aI0
aI0
aI0
aI0
aI0
aI0
aI0
aI0
aI0
aI0
aI20
aI0
aI0
aI-5
aI0
aI2
aI0
aI1
aa(lp7
I151
aI190
aI129
aI0
aI0
aI0
aI0
aI0
aI0
aI0
aI0
aI0
aI0
aI0
aI0
aI24
aI0
aI0
aI-6
aI0
aI2
aI0
aI1
aa(lp8
I155
aI227
aI80
aI0
aI0
aI0
aI0
aI0
aI0
aI0
aI0
aI0
aI0
aI0
aI0
aI25
aI0
aI0
aI-7
aI0
aI2
aI0
aI1
aa(lp9
I177
aI192
aI168
aI0
aI0
aI0
aI0
aI0
aI0
aI0
aI0
aI0
aI0
aI0
aI0
aI23
aI0
aI0
aI-6
aI0
aI2
aI0
aI1
aa(lp10
I186
aI197
aI177
aI0
aI0
aI0
aI0
aI0
aI0
aI0
aI0
aI0
aI0
aI0
aI0
aI26
aI0
aI0
aI-6
aI0
aI2
aI0
aI1
aa(lp11
I98
aI102
aI87
aI0
aI0
aI0
aI0
aI0
aI0
aI0
aI0
aI0
aI0
aI0
aI0
aI22
aI0
aI0
aI-6
aI0
aI2
aI0
aI1
aa(lp12
I202
aI241
aI164
aI0
aI0
aI0
aI0
aI0
aI0
aI0
aI0
aI0
aI0
aI0
aI0
aI20
aI0
aI0
aI-6
aI0
aI2
aI0
aI1
aa(lp13
I117
aI129
aI110
aI0
aI0
aI0
aI0
aI0
aI0
aI0
aI0
aI0
aI0
aI0
aI0
aI22
aI0
aI0
aI-4
aI0
aI2
aI0
aI1
aa(lp14
I153
aI165
aI65
aI0
aI0
aI0
aI0
aI0
aI0
aI0
aI0
aI0
aI0
aI0
aI0
aI17
aI0
aI0
aI-4
aI0
aI2
aI0
aI1
aa(lp15
I120
aI131
aI113
aI0
aI0
aI0
aI0
aI0
aI0
aI0
aI0
aI0
aI0
aI0
aI0
aI21
aI0
aI0
aI-4
aI0
aI2
aI0
aI1
aa(lp16
I116
aI177
aI96
aI0
aI0
aI0
aI0
aI0
aI0
aI0
aI0
aI0
aI0
aI0
aI0
aI24
aI0
aI0
aI-5
aI0
aI2
aI0
aI-1
aa(lp17
I116
aI141
aI110
aI0
aI0
aI0
aI0
aI0
aI0
aI0
aI0
aI0
aI0
aI0
aI0
aI19
aI0
aI0
aI-3
aI0
aI2
aI0
aI1
aa(lp18
I202
aI565
aI177
aI0
aI0
aI0
aI0
aI0
aI0
aI0
aI0
aI0
aI0
aI0
aI0
aI14
aI0
aI0
aI-4
aI0
aI2
aI0
aI1
aa(lp19
I158
aI442
aI71
aI0
aI0
aI0
aI0
aI0
aI0
aI0
aI0
aI0
aI0
aI0
aI0
aI26
aI0
aI0
aI-6
aI0
aI2
aI0
aI1
aa(lp20
I108
aI134
aI102
aI0
aI0
aI0
aI0
aI0
aI0
aI0
aI0
aI0
aI0
aI0
aI0
aI21
aI0
aI0
aI-4
aI0
aI1
aI0
aI1
aa(lp21
I163
aI200
aI76
aI0
aI0
aI0
aI0
aI0
aI0
aI0
aI0
aI0
aI0
aI0
aI0
aI23
aI0
aI0
aI-5
aI0
aI2
aI0
aI1
aa(lp22
I252
aI261
aI182
aI0
aI0
aI0
aI0
aI0
aI0
aI0
aI0
aI0
aI0
aI0
aI0
aI26
aI0
aI0
aI-7
aI0
aI2
aI0
aI-1
aa(lp23
I166
aI206
aI78
aI0
aI0
aI0
aI0
aI0
aI0
aI0
aI0
aI0
aI0
aI0
aI0
aI11
aI0
aI0
aI-4
aI0
aI3
aI0
aI1
aa(lp24
I121
aI139
aI98
aI0
aI0
aI0
aI0
aI0
aI0
aI0
aI0
aI0
aI0
aI0
aI0
aI21
aI0
aI0
aI-4
aI0
aI2
aI0
aI1
aa(lp25
I125
aI140
aI96
aI0
aI0
aI0
aI0
aI0
aI0
aI0
aI0
aI0
aI0
aI0
aI0
aI15
aI0
aI0
aI-5
aI0
aI2
aI0
aI1
aa(lp26
I122
aI142
aI94
aI0
aI0
aI0
aI0
aI0
aI0
aI0
aI0
aI0
aI0
aI0
aI0
aI22
aI0
aI0
aI-5
aI0
aI2
aI0
aI1
aa(lp27
I126
aI154
aI97
aI0
aI0
aI0
aI0
aI0
aI0
aI0
aI0
aI0
aI0
aI0
aI0
aI21
aI0
aI0
aI-5
aI0
aI2
aI0
aI1
aa(lp28
I126
aI134
aI112
aI0
aI0
aI0
aI0
aI0
aI0
aI0
aI0
aI0
aI0
aI0
aI0
aI25
aI0
aI0
aI-6
aI0
aI2
aI0
aI-1
aa(lp29
I204
aI221
aI189
aI0
aI0
aI0
aI0
aI0
aI0
aI0
aI0
aI0
aI0
aI0
aI0
aI21
aI0
aI0
aI-4
aI0
aI2
aI0
aI1
aa(lp30
I152
aI161
aI76
aI0
aI0
aI0
aI0
aI0
aI0
aI0
aI0
aI0
aI0
aI0
aI0
aI20
aI0
aI0
aI-6
aI0
aI2
aI0
aI1
aa(lp31
I162
aI198
aI77
aI0
aI0
aI0
aI0
aI0
aI0
aI0
aI0
aI0
aI0
aI0
aI0
aI25
aI0
aI0
aI-6
aI0
aI1
aI0
aI1
aa(lp32
I128
aI479
aI88
aI0
aI0
aI0
aI0
aI0
aI0
aI0
aI0
aI0
aI0
aI0
aI0
aI24
aI0
aI0
aI-6
aI0
aI2
aI0
aI1
aa(lp33
I95
aI107
aI87
aI0
aI0
aI0
aI0
aI0
aI0
aI0
aI0
aI0
aI0
aI0
aI0
aI19
aI0
aI0
aI-5
aI0
aI2
aI0
aI1
aa(lp34
I117
aI134
aI100
aI0
aI0
aI0
aI0
aI0
aI0
aI0
aI0
aI0
aI0
aI0
aI0
aI19
aI0
aI0
aI-3
aI0
aI2
aI0
aI1
aa(lp35
I156
aI195
aI79
aI0
aI0
aI0
aI0
aI0
aI0
aI0
aI0
aI0
aI0
aI0
aI0
aI19
aI0
aI0
aI-5
aI0
aI1
aI0
aI1
aa(lp36
I151
aI157
aI133
aI0
aI0
aI0
aI0
aI0
aI0
aI0
aI0
aI0
aI0
aI0
aI0
aI26
aI0
aI0
aI-6
aI0
aI2
aI0
aI1
aa(lp37
I151
aI492
aI69
aI0
aI0
aI0
aI0
aI0
aI0
aI0
aI0
aI0
aI0
aI0
aI0
aI23
aI0
aI0
aI-4
aI0
aI2
aI0
aI1
aa(lp38
I114
aI126
aI91
aI0
aI0
aI0
aI0
aI0
aI0
aI0
aI0
aI0
aI0
aI0
aI0
aI18
aI0
aI0
aI-5
aI0
aI2
aI0
aI1
aa(lp39
I120
aI137
aI114
aI0
aI0
aI0
aI0
aI0
aI0
aI0
aI0
aI0
aI0
aI0
aI0
aI24
aI0
aI0
aI-5
aI0
aI1
aI0
aI1
aa(lp40
I142
aI217
aI83
aI0
aI0
aI0
aI0
aI0
aI0
aI0
aI0
aI0
aI0
aI0
aI0
aI25
aI0
aI0
aI-5
aI0
aI2
aI0
aI1
aa(lp41
I176
aI205
aI75
aI0
aI0
aI0
aI0
aI0
aI0
aI0
aI0
aI0
aI0
aI0
aI0
aI13
aI0
aI0
aI-5
aI0
aI3
aI0
aI1
aa(lp42
I96
aI108
aI84
aI0
aI0
aI0
aI0
aI0
aI0
aI0
aI0
aI0
aI0
aI0
aI0
aI19
aI0
aI0
aI-4
aI0
aI2
aI0
aI1
aa(lp43
I228
aI234
aI223
aI0
aI0
aI0
aI0
aI0
aI0
aI0
aI0
aI0
aI0
aI0
aI0
aI25
aI0
aI0
aI-7
aI0
aI2
aI0
aI-1
aa(lp44
I178
aI202
aI141
aI0
aI0
aI0
aI0
aI0
aI0
aI0
aI0
aI0
aI0
aI0
aI0
aI15
aI0
aI0
aI-6
aI0
aI2
aI0
aI1
aa(lp45
I114
aI119
aI86
aI0
aI0
aI0
aI0
aI0
aI0
aI0
aI0
aI0
aI0
aI0
aI0
aI24
aI0
aI0
aI-6
aI0
aI1
aI0
aI-1
aa(lp46
I122
aI128
aI115
aI0
aI0
aI0
aI0
aI0
aI0
aI0
aI0
aI0
aI0
aI0
aI0
aI23
aI0
aI0
aI-6
aI0
aI2
aI0
aI-1
aa(lp47
I202
aI231
aI86
aI0
aI0
aI0
aI0
aI0
aI0
aI0
aI0
aI0
aI0
aI0
aI0
aI18
aI0
aI0
aI-5
aI0
aI2
aI0
aI1
aa(lp48
I115
aI135
aI107
aI0
aI0
aI0
aI0
aI0
aI0
aI0
aI0
aI0
aI0
aI0
aI0
aI19
aI0
aI0
aI-5
aI0
aI2
aI0
aI1
aa(lp49
I116
aI129
aI108
aI0
aI0
aI0
aI0
aI0
aI0
aI0
aI0
aI0
aI0
aI0
aI0
aI26
aI0
aI0
aI-6
aI0
aI2
aI0
aI-1
aa(lp50
I91
aI115
aI86
aI0
aI0
aI0
aI0
aI0
aI0
aI0
aI0
aI0
aI0
aI0
aI0
aI21
aI0
aI0
aI-4
aI0
aI2
aI0
aI1
aa(lp51
I120
aI139
aI111
aI0
aI0
aI0
aI0
aI0
aI0
aI0
aI0
aI0
aI0
aI0
aI0
aI25
aI0
aI0
aI-5
aI0
aI2
aI0
aI1
aa(lp52
I198
aI396
aI74
aI0
aI0
aI0
aI0
aI0
aI0
aI0
aI0
aI0
aI0
aI0
aI0
aI19
aI0
aI0
aI-6
aI0
aI2
aI0
aI-1
aa(lp53
I110
aI113
aI100
aI0
aI0
aI0
aI0
aI0
aI0
aI0
aI0
aI0
aI0
aI0
aI0
aI26
aI0
aI0
aI-6
aI0
aI1
aI0
aI-1
aa(lp54
I208
aI220
aI199
aI0
aI0
aI0
aI0
aI0
aI0
aI0
aI0
aI0
aI0
aI0
aI0
aI22
aI0
aI0
aI-6
aI0
aI2
aI0
aI1
aa(lp55
I136
aI166
aI66
aI0
aI0
aI0
aI0
aI0
aI0
aI0
aI0
aI0
aI0
aI0
aI0
aI19
aI0
aI0
aI-5
aI0
aI2
aI0
aI1
aa(lp56
I106
aI112
aI93
aI0
aI0
aI0
aI0
aI0
aI0
aI0
aI0
aI0
aI0
aI0
aI0
aI17
aI0
aI0
aI-5
aI0
aI2
aI0
aI1
aa(lp57
I127
aI138
aI112
aI0
aI0
aI0
aI0
aI0
aI0
aI0
aI0
aI0
aI0
aI0
aI0
aI19
aI0
aI0
aI-5
aI0
aI2
aI0
aI1
aa(lp58
I138
aI197
aI81
aI0
aI0
aI0
aI0
aI0
aI0
aI0
aI0
aI0
aI0
aI0
aI0
aI18
aI0
aI0
aI-5
aI0
aI1
aI0
aI1
aa(lp59
I198
aI219
aI148
aI0
aI0
aI0
aI0
aI0
aI0
aI0
aI0
aI0
aI0
aI0
aI0
aI18
aI0
aI0
aI-5
aI0
aI2
aI0
aI1
aa(lp60
I157
aI172
aI68
aI0
aI0
aI0
aI0
aI0
aI0
aI0
aI0
aI0
aI0
aI0
aI0
aI22
aI0
aI0
aI-6
aI0
aI2
aI0
aI1
aa(lp61
I110
aI125
aI106
aI0
aI0
aI0
aI0
aI0
aI0
aI0
aI0
aI0
aI0
aI0
aI0
aI25
aI0
aI0
aI-5
aI0
aI1
aI0
aI1
aa(lp62
I201
aI262
aI78
aI0
aI0
aI0
aI0
aI0
aI0
aI0
aI0
aI0
aI0
aI0
aI0
aI19
aI0
aI0
aI-6
aI0
aI2
aI0
aI-1
aa(lp63
I146
aI208
aI81
aI0
aI0
aI0
aI0
aI0
aI0
aI0
aI0
aI0
aI0
aI0
aI0
aI25
aI0
aI0
aI-6
aI0
aI2
aI0
aI1
aa(lp64
I229
aI252
aI221
aI0
aI0
aI0
aI0
aI0
aI0
aI0
aI0
aI0
aI0
aI0
aI0
aI26
aI0
aI0
aI-7
aI0
aI2
aI0
aI-1
aa(lp65
I183
aI216
aI161
aI0
aI0
aI0
aI0
aI0
aI0
aI0
aI0
aI0
aI0
aI0
aI0
aI14
aI0
aI0
aI-4
aI0
aI3
aI0
aI1
aa(lp66
I113
aI133
aI107
aI0
aI0
aI0
aI0
aI0
aI0
aI0
aI0
aI0
aI0
aI0
aI0
aI19
aI0
aI0
aI-4
aI0
aI2
aI0
aI1
aa(lp67
I117
aI144
aI99
aI0
aI0
aI0
aI0
aI0
aI0
aI0
aI0
aI0
aI0
aI0
aI0
aI25
aI0
aI0
aI-6
aI0
aI1
aI0
aI-1
aa(lp68
I148
aI161
aI141
aI0
aI0
aI0
aI0
aI0
aI0
aI0
aI0
aI0
aI0
aI0
aI0
aI22
aI0
aI0
aI-5
aI0
aI2
aI0
aI1
aa(lp69
I116
aI581
aI94
aI0
aI0
aI0
aI0
aI0
aI0
aI0
aI0
aI0
aI0
aI0
aI0
aI25
aI0
aI0
aI-6
aI0
aI2
aI0
aI-1
aa(lp70
I180
aI201
aI175
aI0
aI0
aI0
aI0
aI0
aI0
aI0
aI0
aI0
aI0
aI0
aI0
aI26
aI0
aI0
aI-6
aI0
aI2
aI0
aI1
aa(lp71
I193
aI208
aI80
aI0
aI0
aI0
aI0
aI0
aI0
aI0
aI0
aI0
aI0
aI0
aI0
aI21
aI0
aI0
aI-5
aI0
aI2
aI0
aI1
aa(lp72
I245
aI262
aI231
aI0
aI0
aI0
aI0
aI0
aI0
aI0
aI0
aI0
aI0
aI0
aI0
aI24
aI0
aI0
aI-7
aI0
aI2
aI0
aI-1
aa(lp73
I95
aI102
aI90
aI0
aI0
aI0
aI0
aI0
aI0
aI0
aI0
aI0
aI0
aI0
aI0
aI21
aI0
aI0
aI-5
aI0
aI2
aI0
aI1
aa(lp74
I168
aI232
aI75
aI0
aI0
aI0
aI0
aI0
aI0
aI0
aI0
aI0
aI0
aI0
aI0
aI20
aI0
aI0
aI-2
aI0
aI3
aI0
aI1
aa(lp75
I174
aI230
aI94
aI0
aI0
aI0
aI0
aI0
aI0
aI0
aI0
aI0
aI0
aI0
aI0
aI19
aI0
aI0
aI-6
aI0
aI2
aI0
aI-1
aa(lp76
I128
aI138
aI122
aI0
aI0
aI0
aI0
aI0
aI0
aI0
aI0
aI0
aI0
aI0
aI0
aI24
aI0
aI0
aI-7
aI0
aI1
aI0
aI-1
aa(lp77
I169
aI191
aI151
aI0
aI0
aI0
aI0
aI0
aI0
aI0
aI0
aI0
aI0
aI0
aI0
aI12
aI0
aI0
aI-3
aI0
aI3
aI0
aI1
aa(lp78
I150
aI163
aI144
aI0
aI0
aI0
aI0
aI0
aI0
aI0
aI0
aI0
aI0
aI0
aI0
aI23
aI0
aI0
aI-6
aI0
aI2
aI0
aI1
aa(lp79
I107
aI113
aI104
aI0
aI0
aI0
aI0
aI0
aI0
aI0
aI0
aI0
aI0
aI0
aI0
aI26
aI0
aI0
aI-6
aI0
aI2
aI0
aI1
aa(lp80
I117
aI127
aI95
aI0
aI0
aI0
aI0
aI0
aI0
aI0
aI0
aI0
aI0
aI0
aI0
aI22
aI0
aI0
aI-3
aI0
aI2
aI0
aI1
aa(lp81
I153
aI175
aI68
aI0
aI0
aI0
aI0
aI0
aI0
aI0
aI0
aI0
aI0
aI0
aI0
aI17
aI0
aI0
aI-3
aI0
aI3
aI0
aI1
aa(lp82
I126
aI141
aI99
aI0
aI0
aI0
aI0
aI0
aI0
aI0
aI0
aI0
aI0
aI0
aI0
aI12
aI0
aI0
aI-3
aI0
aI2
aI0
aI1
aa(lp83
I178
aI442
aI82
aI0
aI0
aI0
aI0
aI0
aI0
aI0
aI0
aI0
aI0
aI0
aI0
aI25
aI0
aI0
aI-4
aI0
aI2
aI0
aI1
aa(lp84
I242
aI255
aI227
aI0
aI0
aI0
aI0
aI0
aI0
aI0
aI0
aI0
aI0
aI0
aI0
aI25
aI0
aI0
aI-6
aI0
aI2
aI0
aI-1
aa(lp85
I149
aI163
aI144
aI0
aI0
aI0
aI0
aI0
aI0
aI0
aI0
aI0
aI0
aI0
aI0
aI23
aI0
aI0
aI-6
aI0
aI2
aI0
aI1
aa(lp86
I148
aI155
aI135
aI0
aI0
aI0
aI0
aI0
aI0
aI0
aI0
aI0
aI0
aI0
aI0
aI23
aI0
aI0
aI-5
aI0
aI2
aI0
aI1
aa(lp87
I143
aI162
aI65
aI0
aI0
aI0
aI0
aI0
aI0
aI0
aI0
aI0
aI0
aI0
aI0
aI20
aI0
aI0
aI-5
aI0
aI2
aI0
aI1
aa(lp88
I237
aI243
aI229
aI0
aI0
aI0
aI0
aI0
aI0
aI0
aI0
aI0
aI0
aI0
aI0
aI24
aI0
aI0
aI-7
aI0
aI1
aI0
aI-1
aa(lp89
I116
aI131
aI111
aI0
aI0
aI0
aI0
aI0
aI0
aI0
aI0
aI0
aI0
aI0
aI0
aI20
aI0
aI0
aI-4
aI0
aI2
aI0
aI1
aa(lp90
I184
aI196
aI166
aI0
aI0
aI0
aI0
aI0
aI0
aI0
aI0
aI0
aI0
aI0
aI0
aI26
aI0
aI0
aI-7
aI0
aI2
aI0
aI1
aa(lp91
I119
aI157
aI74
aI0
aI0
aI0
aI0
aI0
aI0
aI0
aI0
aI0
aI0
aI0
aI0
aI21
aI0
aI0
aI-4
aI0
aI2
aI0
aI1
aa(lp92
I176
aI215
aI83
aI0
aI0
aI0
aI0
aI0
aI0
aI0
aI0
aI0
aI0
aI0
aI0
aI27
aI0
aI0
aI-4
aI0
aI2
aI0
aI1
aa(lp93
I156
aI189
aI142
aI0
aI0
aI0
aI0
aI0
aI0
aI0
aI0
aI0
aI0
aI0
aI0
aI17
aI0
aI0
aI-4
aI0
aI2
aI0
aI1
aa(lp94
I150
aI154
aI75
aI0
aI0
aI0
aI0
aI0
aI0
aI0
aI0
aI0
aI0
aI0
aI0
aI26
aI0
aI0
aI-6
aI0
aI2
aI0
aI1
aa(lp95
I113
aI130
aI100
aI0
aI0
aI0
aI0
aI0
aI0
aI0
aI0
aI0
aI0
aI0
aI0
aI16
aI0
aI0
aI-4
aI0
aI2
aI0
aI1
aa(lp96
I112
aI148
aI106
aI0
aI0
aI0
aI0
aI0
aI0
aI0
aI0
aI0
aI0
aI0
aI0
aI23
aI0
aI0
aI-5
aI0
aI2
aI0
aI1
aa(lp97
I170
aI268
aI79
aI0
aI0
aI0
aI0
aI0
aI0
aI0
aI0
aI0
aI0
aI0
aI0
aI18
aI0
aI0
aI-4
aI0
aI2
aI0
aI1
aa(lp98
I125
aI141
aI116
aI0
aI0
aI0
aI0
aI0
aI0
aI0
aI0
aI0
aI0
aI0
aI0
aI8
aI0
aI0
aI-3
aI0
aI2
aI0
aI1
aa(lp99
I122
aI130
aI114
aI0
aI0
aI0
aI0
aI0
aI0
aI0
aI0
aI0
aI0
aI0
aI0
aI24
aI0
aI0
aI-6
aI0
aI2
aI0
aI-1
aa(lp100
I209
aI237
aI109
aI0
aI0
aI0
aI0
aI0
aI0
aI0
aI0
aI0
aI0
aI0
aI0
aI25
aI0
aI0
aI-7
aI0
aI2
aI0
aI-1
aa(lp101
I119
aI127
aI109
aI0
aI0
aI0
aI0
aI0
aI0
aI0
aI0
aI0
aI0
aI0
aI0
aI26
aI0
aI0
aI-6
aI0
aI2
aI0
aI1
aa(lp102
I222
aI231
aI205
aI0
aI0
aI0
aI0
aI0
aI0
aI0
aI0
aI0
aI0
aI0
aI0
aI25
aI0
aI0
aI-6
aI0
aI2
aI0
aI-1
aa(lp103
I148
aI162
aI67
aI0
aI0
aI0
aI0
aI0
aI0
aI0
aI0
aI0
aI0
aI0
aI0
aI21
aI0
aI0
aI-6
aI0
aI2
aI0
aI1
aa(lp104
I186
aI211
aI149
aI0
aI0
aI0
aI0
aI0
aI0
aI0
aI0
aI0
aI0
aI0
aI0
aI12
aI0
aI0
aI-4
aI0
aI2
aI0
aI1
aa(lp105
I95
aI132
aI91
aI0
aI0
aI0
aI0
aI0
aI0
aI0
aI0
aI0
aI0
aI0
aI0
aI21
aI0
aI0
aI-5
aI0
aI2
aI0
aI1
aa(lp106
I210
aI232
aI185
aI0
aI0
aI0
aI0
aI0
aI0
aI0
aI0
aI0
aI0
aI0
aI0
aI23
aI0
aI0
aI-5
aI0
aI2
aI0
aI1
aa(lp107
I200
aI223
aI89
aI0
aI0
aI0
aI0
aI0
aI0
aI0
aI0
aI0
aI0
aI0
aI0
aI23
aI0
aI0
aI-5
aI0
aI2
aI0
aI1
aa(lp108
I197
aI217
aI90
aI0
aI0
aI0
aI0
aI0
aI0
aI0
aI0
aI0
aI0
aI0
aI0
aI19
aI0
aI0
aI-5
aI0
aI2
aI0
aI-1
aa(lp109
I240
aI245
aI219
aI0
aI0
aI0
aI0
aI0
aI0
aI0
aI0
aI0
aI0
aI0
aI0
aI21
aI0
aI0
aI-7
aI0
aI2
aI0
aI-1
aa(lp110
I223
aI263
aI87
aI0
aI0
aI0
aI0
aI0
aI0
aI0
aI0
aI0
aI0
aI0
aI0
aI20
aI0
aI0
aI-5
aI0
aI2
aI0
aI1
aa(lp111
I110
aI127
aI105
aI0
aI0
aI0
aI0
aI0
aI0
aI0
aI0
aI0
aI0
aI0
aI0
aI17
aI0
aI0
aI-5
aI0
aI2
aI0
aI1
aa(lp112
I188
aI216
aI165
aI0
aI0
aI0
aI0
aI0
aI0
aI0
aI0
aI0
aI0
aI0
aI0
aI12
aI0
aI0
aI-3
aI0
aI3
aI0
aI1
aa(lp113
I179
aI225
aI144
aI0
aI0
aI0
aI0
aI0
aI0
aI0
aI0
aI0
aI0
aI0
aI0
aI11
aI0
aI0
aI-4
aI0
aI3
aI0
aI1
aa(lp114
I260
aI264
aI237
aI0
aI0
aI0
aI0
aI0
aI0
aI0
aI0
aI0
aI0
aI0
aI0
aI21
aI0
aI0
aI-7
aI0
aI1
aI0
aI-1
aa(lp115
I237
aI247
aI225
aI0
aI0
aI0
aI0
aI0
aI0
aI0
aI0
aI0
aI0
aI0
aI0
aI22
aI0
aI0
aI-7
aI0
aI2
aI0
aI-1
aa(lp116
I217
aI233
aI93
aI0
aI0
aI0
aI0
aI0
aI0
aI0
aI0
aI0
aI0
aI0
aI0
aI24
aI0
aI0
aI-5
aI0
aI2
aI0
aI1
aa(lp117
I243
aI250
aI232
aI0
aI0
aI0
aI0
aI0
aI0
aI0
aI0
aI0
aI0
aI0
aI0
aI25
aI0
aI0
aI-7
aI0
aI2
aI0
aI-1
aa(lp118
I144
aI349
aI82
aI0
aI0
aI0
aI0
aI0
aI0
aI0
aI0
aI0
aI0
aI0
aI0
aI22
aI0
aI0
aI-5
aI0
aI2
aI0
aI1
aa(lp119
I100
aI115
aI85
aI0
aI0
aI0
aI0
aI0
aI0
aI0
aI0
aI0
aI0
aI0
aI0
aI19
aI0
aI0
aI-4
aI0
aI2
aI0
aI1
aa(lp120
I140
aI159
aI67
aI0
aI0
aI0
aI0
aI0
aI0
aI0
aI0
aI0
aI0
aI0
aI0
aI19
aI0
aI0
aI-5
aI0
aI2
aI0
aI1
aa(lp121
I209
aI253
aI89
aI0
aI0
aI0
aI0
aI0
aI0
aI0
aI0
aI0
aI0
aI0
aI0
aI19
aI0
aI0
aI-6
aI0
aI2
aI0
aI-1
aa(lp122
I167
aI193
aI79
aI0
aI0
aI0
aI0
aI0
aI0
aI0
aI0
aI0
aI0
aI0
aI0
aI22
aI0
aI0
aI-4
aI0
aI2
aI0
aI1
aa(lp123
I166
aI198
aI79
aI0
aI0
aI0
aI0
aI0
aI0
aI0
aI0
aI0
aI0
aI0
aI0
aI18
aI0
aI0
aI-5
aI0
aI1
aI0
aI1
aa(lp124
I157
aI163
aI149
aI0
aI0
aI0
aI0
aI0
aI0
aI0
aI0
aI0
aI0
aI0
aI0
aI21
aI0
aI0
aI-6
aI0
aI2
aI0
aI1
aa(lp125
I129
aI139
aI118
aI0
aI0
aI0
aI0
aI0
aI0
aI0
aI0
aI0
aI0
aI0
aI0
aI25
aI0
aI0
aI-6
aI0
aI2
aI0
aI-1
aa(lp126
I180
aI200
aI155
aI0
aI0
aI0
aI0
aI0
aI0
aI0
aI0
aI0
aI0
aI0
aI0
aI16
aI0
aI0
aI-5
aI0
aI3
aI0
aI1
aa(lp127
I116
aI592
aI86
aI0
aI0
aI0
aI0
aI0
aI0
aI0
aI0
aI0
aI0
aI0
aI0
aI23
aI0
aI0
aI-6
aI0
aI2
aI0
aI-1
aa(lp128
I109
aI126
aI104
aI0
aI0
aI0
aI0
aI0
aI0
aI0
aI0
aI0
aI0
aI0
aI0
aI20
aI0
aI0
aI-4
aI0
aI2
aI0
aI1
aa(lp129
I104
aI206
aI77
aI0
aI0
aI0
aI0
aI0
aI0
aI0
aI0
aI0
aI0
aI0
aI0
aI22
aI0
aI0
aI-5
aI0
aI2
aI0
aI1
aa(lp130
I102
aI142
aI85
aI0
aI0
aI0
aI0
aI0
aI0
aI0
aI0
aI0
aI0
aI0
aI0
aI18
aI0
aI0
aI-2
aI0
aI2
aI0
aI1
aa(lp131
I100
aI110
aI95
aI0
aI0
aI0
aI0
aI0
aI0
aI0
aI0
aI0
aI0
aI0
aI0
aI20
aI0
aI0
aI-5
aI0
aI2
aI0
aI1
aa(lp132
I120
aI128
aI100
aI0
aI0
aI0
aI0
aI0
aI0
aI0
aI0
aI0
aI0
aI0
aI0
aI23
aI0
aI0
aI-6
aI0
aI2
aI0
aI1
aa(lp133
I114
aI271
aI104
aI0
aI0
aI0
aI0
aI0
aI0
aI0
aI0
aI0
aI0
aI0
aI0
aI21
aI0
aI0
aI-4
aI0
aI1
aI0
aI1
aa(lp134
I148
aI164
aI142
aI0
aI0
aI0
aI0
aI0
aI0
aI0
aI0
aI0
aI0
aI0
aI0
aI18
aI0
aI0
aI-5
aI0
aI2
aI0
aI1
aa(lp135
I170
aI450
aI79
aI0
aI0
aI0
aI0
aI0
aI0
aI0
aI0
aI0
aI0
aI0
aI0
aI25
aI0
aI0
aI-4
aI0
aI2
aI0
aI1
aa(lp136
I116
aI131
aI109
aI0
aI0
aI0
aI0
aI0
aI0
aI0
aI0
aI0
aI0
aI0
aI0
aI18
aI0
aI0
aI-5
aI0
aI2
aI0
aI1
aa(lp137
I110
aI131
aI103
aI0
aI0
aI0
aI0
aI0
aI0
aI0
aI0
aI0
aI0
aI0
aI0
aI21
aI0
aI0
aI-4
aI0
aI1
aI0
aI1
aa(lp138
I119
aI125
aI86
aI0
aI0
aI0
aI0
aI0
aI0
aI0
aI0
aI0
aI0
aI0
aI0
aI23
aI0
aI0
aI-5
aI0
aI2
aI0
aI1
aa(lp139
I148
aI158
aI138
aI0
aI0
aI0
aI0
aI0
aI0
aI0
aI0
aI0
aI0
aI0
aI0
aI24
aI0
aI0
aI-6
aI0
aI2
aI0
aI1
aa(lp140
I208
aI253
aI91
aI0
aI0
aI0
aI0
aI0
aI0
aI0
aI0
aI0
aI0
aI0
aI0
aI15
aI0
aI0
aI-5
aI0
aI2
aI0
aI1
aa(lp141
I88
aI112
aI84
aI0
aI0
aI0
aI0
aI0
aI0
aI0
aI0
aI0
aI0
aI0
aI0
aI21
aI0
aI0
aI-5
aI0
aI2
aI0
aI1
aa(lp142
I124
aI135
aI117
aI0
aI0
aI0
aI0
aI0
aI0
aI0
aI0
aI0
aI0
aI0
aI0
aI25
aI0
aI0
aI-6
aI0
aI1
aI0
aI-1
aa(lp143
I203
aI211
aI196
aI0
aI0
aI0
aI0
aI0
aI0
aI0
aI0
aI0
aI0
aI0
aI0
aI33
aI0
aI0
aI-7
aI0
aI1
aI0
aI-1
aa(lp144
I110
aI128
aI107
aI0
aI0
aI0
aI0
aI0
aI0
aI0
aI0
aI0
aI0
aI0
aI0
aI25
aI0
aI0
aI-5
aI0
aI2
aI0
aI1
aa(lp145
I187
aI202
aI173
aI0
aI0
aI0
aI0
aI0
aI0
aI0
aI0
aI0
aI0
aI0
aI0
aI26
aI0
aI0
aI-6
aI0
aI2
aI0
aI1
aa(lp146
I174
aI240
aI74
aI0
aI0
aI0
aI0
aI0
aI0
aI0
aI0
aI0
aI0
aI0
aI0
aI17
aI0
aI0
aI-6
aI0
aI2
aI0
aI-1
aa(lp147
I223
aI238
aI98
aI0
aI0
aI0
aI0
aI0
aI0
aI0
aI0
aI0
aI0
aI0
aI0
aI26
aI0
aI0
aI-7
aI0
aI2
aI0
aI-1
aa(lp148
I159
aI168
aI144
aI0
aI0
aI0
aI0
aI0
aI0
aI0
aI0
aI0
aI0
aI0
aI0
aI22
aI0
aI0
aI-6
aI0
aI2
aI0
aI1
aa(lp149
I228
aI239
aI113
aI0
aI0
aI0
aI0
aI0
aI0
aI0
aI0
aI0
aI0
aI0
aI0
aI24
aI0
aI0
aI-7
aI0
aI2
aI0
aI-1
aa(lp150
I173
aI192
aI86
aI0
aI0
aI0
aI0
aI0
aI0
aI0
aI0
aI0
aI0
aI0
aI0
aI20
aI0
aI0
aI-5
aI0
aI2
aI0
aI1
aa(lp151
I114
aI124
aI77
aI0
aI0
aI0
aI0
aI0
aI0
aI0
aI0
aI0
aI0
aI0
aI0
aI20
aI0
aI0
aI-5
aI0
aI2
aI0
aI1
aa(lp152
I236
aI244
aI102
aI0
aI0
aI0
aI0
aI0
aI0
aI0
aI0
aI0
aI0
aI0
aI0
aI24
aI0
aI0
aI-6
aI0
aI2
aI0
aI-1
aa(lp153
I119
aI128
aI88
aI0
aI0
aI0
aI0
aI0
aI0
aI0
aI0
aI0
aI0
aI0
aI0
aI21
aI0
aI0
aI-4
aI0
aI2
aI0
aI1
aa(lp154
I192
aI224
aI168
aI0
aI0
aI0
aI0
aI0
aI0
aI1
aI0
aI0
aI0
aI0
aI0
aI8
aI0
aI0
aI-2
aI0
aI3
aI0
aI1
aa(lp155
I116
aI217
aI99
aI0
aI0
aI0
aI0
aI0
aI0
aI0
aI0
aI0
aI0
aI0
aI0
aI22
aI0
aI0
aI-5
aI0
aI2
aI0
aI-1
aa(lp156
I95
aI120
aI91
aI0
aI0
aI0
aI0
aI0
aI0
aI0
aI0
aI0
aI0
aI0
aI0
aI21
aI0
aI0
aI-5
aI0
aI2
aI0
aI1
aa(lp157
I199
aI209
aI192
aI0
aI0
aI0
aI0
aI0
aI0
aI0
aI0
aI0
aI0
aI0
aI0
aI30
aI0
aI0
aI-7
aI0
aI2
aI0
aI-1
aa(lp158
I214
aI260
aI77
aI0
aI0
aI0
aI0
aI0
aI0
aI0
aI0
aI0
aI0
aI0
aI0
aI21
aI0
aI0
aI-5
aI0
aI2
aI0
aI-1
aa(lp159
I112
aI131
aI97
aI0
aI0
aI0
aI0
aI0
aI0
aI0
aI0
aI0
aI0
aI0
aI0
aI21
aI0
aI0
aI-5
aI0
aI1
aI0
aI1
aa(lp160
I182
aI197
aI79
aI0
aI0
aI0
aI0
aI0
aI0
aI0
aI0
aI0
aI0
aI0
aI0
aI18
aI0
aI0
aI-5
aI0
aI2
aI0
aI1
aa(lp161
I151
aI157
aI132
aI0
aI0
aI0
aI0
aI0
aI0
aI0
aI0
aI0
aI0
aI0
aI0
aI29
aI0
aI0
aI-6
aI0
aI2
aI0
aI1
aa(lp162
I176
aI227
aI125
aI0
aI0
aI0
aI0
aI0
aI0
aI0
aI0
aI0
aI0
aI0
aI0
aI13
aI0
aI0
aI-5
aI0
aI3
aI0
aI1
aa(lp163
I152
aI163
aI75
aI0
aI0
aI0
aI0
aI0
aI0
aI0
aI0
aI0
aI0
aI0
aI0
aI24
aI0
aI0
aI-6
aI0
aI2
aI0
aI1
aa(lp164
I197
aI206
aI192
aI0
aI0
aI0
aI0
aI0
aI0
aI0
aI0
aI0
aI0
aI0
aI0
aI26
aI0
aI0
aI-7
aI0
aI1
aI0
aI-1
aa(lp165
I120
aI125
aI104
aI0
aI0
aI0
aI0
aI0
aI0
aI0
aI0
aI0
aI0
aI0
aI0
aI26
aI0
aI0
aI-6
aI0
aI2
aI0
aI1
aa(lp166
I202
aI211
aI197
aI0
aI0
aI0
aI0
aI0
aI0
aI0
aI0
aI0
aI0
aI0
aI0
aI32
aI0
aI0
aI-7
aI0
aI1
aI0
aI-1
aa(lp167
I198
aI233
aI174
aI0
aI0
aI0
aI0
aI0
aI0
aI1
aI0
aI0
aI0
aI0
aI0
aI9
aI0
aI0
aI-2
aI0
aI3
aI0
aI1
aa(lp168
I171
aI208
aI75
aI0
aI0
aI0
aI0
aI0
aI0
aI0
aI0
aI0
aI0
aI0
aI0
aI25
aI0
aI0
aI-6
aI0
aI2
aI0
aI1
aa(lp169
I241
aI248
aI232
aI0
aI0
aI0
aI0
aI0
aI0
aI0
aI0
aI0
aI0
aI0
aI0
aI23
aI0
aI0
aI-6
aI0
aI2
aI0
aI-1
aa(lp170
I149
aI160
aI133
aI0
aI0
aI0
aI0
aI0
aI0
aI0
aI0
aI0
aI0
aI0
aI0
aI27
aI0
aI0
aI-6
aI0
aI1
aI0
aI1
aa(lp171
I112
aI133
aI105
aI0
aI0
aI0
aI0
aI0
aI0
aI0
aI0
aI0
aI0
aI0
aI0
aI26
aI0
aI0
aI-6
aI0
aI2
aI0
aI-1
aa(lp172
I154
aI160
aI128
aI0
aI0
aI0
aI0
aI0
aI0
aI0
aI0
aI0
aI0
aI0
aI0
aI28
aI0
aI0
aI-7
aI0
aI2
aI0
aI1
aa(lp173
I139
aI586
aI66
aI0
aI0
aI0
aI0
aI0
aI0
aI0
aI0
aI0
aI0
aI0
aI0
aI10
aI0
aI0
aI-3
aI0
aI2
aI0
aI1
aa(lp174
I151
aI163
aI147
aI0
aI0
aI0
aI0
aI0
aI0
aI0
aI0
aI0
aI0
aI0
aI0
aI19
aI0
aI0
aI-6
aI0
aI2
aI0
aI1
aa(lp175
I155
aI163
aI144
aI0
aI0
aI0
aI0
aI0
aI0
aI0
aI0
aI0
aI0
aI0
aI0
aI29
aI0
aI0
aI-6
aI0
aI2
aI0
aI1
aa(lp176
I128
aI150
aI75
aI0
aI0
aI0
aI0
aI0
aI0
aI0
aI0
aI0
aI0
aI0
aI0
aI15
aI0
aI0
aI-4
aI0
aI2
aI0
aI1
aa(lp177
I113
aI116
aI96
aI0
aI0
aI0
aI0
aI0
aI0
aI0
aI0
aI0
aI0
aI0
aI0
aI26
aI0
aI0
aI-5
aI0
aI1
aI0
aI-1
aa(lp178
I112
aI126
aI104
aI0
aI0
aI0
aI0
aI0
aI0
aI0
aI0
aI0
aI0
aI0
aI0
aI17
aI0
aI0
aI-5
aI0
aI2
aI0
aI1
aa(lp179
I139
aI179
aI76
aI0
aI0
aI0
aI0
aI0
aI0
aI0
aI0
aI0
aI0
aI0
aI0
aI24
aI0
aI0
aI-5
aI0
aI2
aI0
aI1
aa(lp180
I112
aI588
aI107
aI0
aI0
aI0
aI0
aI0
aI0
aI0
aI0
aI0
aI0
aI0
aI0
aI24
aI0
aI0
aI-5
aI0
aI1
aI0
aI1
aa(lp181
I136
aI159
aI131
aI0
aI0
aI0
aI0
aI0
aI0
aI0
aI0
aI0
aI0
aI0
aI0
aI25
aI0
aI0
aI-6
aI0
aI2
aI0
aI1
aa(lp182
I118
aI123
aI109
aI0
aI0
aI0
aI0
aI0
aI0
aI0
aI0
aI0
aI0
aI0
aI0
aI25
aI0
aI0
aI-6
aI0
aI2
aI0
aI1
aa(lp183
I120
aI126
aI105
aI0
aI0
aI0
aI0
aI0
aI0
aI0
aI0
aI0
aI0
aI0
aI0
aI26
aI0
aI0
aI-5
aI0
aI2
aI0
aI1
aa(lp184
I116
aI137
aI111
aI0
aI0
aI0
aI0
aI0
aI0
aI0
aI0
aI0
aI0
aI0
aI0
aI20
aI0
aI0
aI-4
aI0
aI2
aI0
aI1
aa(lp185
I244
aI272
aI239
aI0
aI0
aI0
aI0
aI0
aI0
aI0
aI0
aI0
aI0
aI0
aI0
aI21
aI0
aI0
aI-7
aI0
aI2
aI0
aI-1
aa(lp186
I125
aI143
aI116
aI0
aI0
aI0
aI0
aI0
aI0
aI0
aI0
aI0
aI0
aI0
aI0
aI15
aI0
aI0
aI-4
aI0
aI2
aI0
aI1
aa(lp187
I176
aI185
aI163
aI0
aI0
aI0
aI0
aI0
aI0
aI0
aI0
aI0
aI0
aI0
aI0
aI24
aI0
aI0
aI-6
aI0
aI2
aI0
aI1
aa(lp188
I153
aI172
aI78
aI0
aI0
aI0
aI0
aI0
aI0
aI0
aI0
aI0
aI0
aI0
aI0
aI19
aI0
aI0
aI-5
aI0
aI2
aI0
aI1
aa(lp189
I145
aI198
aI80
aI0
aI0
aI0
aI0
aI0
aI0
aI0
aI0
aI0
aI0
aI0
aI0
aI18
aI0
aI0
aI-5
aI0
aI1
aI0
aI1
aa(lp190
I173
aI211
aI74
aI0
aI0
aI0
aI0
aI0
aI0
aI0
aI0
aI0
aI0
aI0
aI0
aI14
aI0
aI0
aI-5
aI0
aI3
aI0
aI1
aa(lp191
I136
aI176
aI65
aI0
aI0
aI0
aI0
aI0
aI0
aI0
aI0
aI0
aI0
aI0
aI0
aI18
aI0
aI0
aI-5
aI0
aI2
aI0
aI1
aa(lp192
I201
aI210
aI195
aI0
aI0
aI0
aI0
aI0
aI0
aI0
aI0
aI0
aI0
aI0
aI0
aI31
aI0
aI0
aI-7
aI0
aI2
aI0
aI-1
aa(lp193
I138
aI203
aI83
aI0
aI0
aI0
aI0
aI0
aI0
aI0
aI0
aI0
aI0
aI0
aI0
aI18
aI0
aI0
aI-5
aI0
aI2
aI0
aI1
aa(lp194
I198
aI215
aI193
aI0
aI0
aI0
aI0
aI0
aI0
aI0
aI0
aI0
aI0
aI0
aI0
aI30
aI0
aI0
aI-7
aI0
aI1
aI0
aI-1
aa(lp195
I206
aI226
aI92
aI0
aI0
aI0
aI0
aI0
aI0
aI0
aI0
aI0
aI0
aI0
aI0
aI21
aI0
aI0
aI-6
aI0
aI2
aI0
aI1
aa(lp196
I117
aI123
aI106
aI0
aI0
aI0
aI0
aI0
aI0
aI0
aI0
aI0
aI0
aI0
aI0
aI23
aI0
aI0
aI-5
aI0
aI2
aI0
aI-1
aa.